

Microchip Technology PIC18 LITE Macro Assembler V1.34 build -361300703 
                                                                                               Thu Sep 26 18:46:56 2024

Microchip Technology Omniscient Code Generator (Lite mode) build 201502162209
     1                           	processor	18F4620
     2                           	fnconf	rparam,??,?,0
     3                           	opt	pw 120
     4                           	opt	lm
     5                           	psect	idataCOMRAM,global,class=CODE,delta=1
     6                           	psect	smallconst,global,reloc=2,class=SMALLCONST,delta=1
     7                           	psect	cinit,global,reloc=2,class=CODE,delta=1
     8                           	psect	dataCOMRAM,global,class=COMRAM,space=1,delta=1
     9                           	psect	cstackCOMRAM,global,class=COMRAM,space=1,delta=1
    10                           	psect	text0,global,reloc=2,class=CODE,delta=1
    11                           	psect	text1,global,reloc=2,class=CODE,delta=1
    12                           	psect	text2,global,reloc=2,class=CODE,delta=1
    13                           	psect	text3,global,reloc=2,class=CODE,delta=1
    14                           	psect	text4,global,reloc=2,class=CODE,delta=1
    15                           	psect	text5,global,reloc=2,class=CODE,delta=1
    16                           	psect	text6,global,reloc=2,class=CODE,delta=1
    17                           	psect	text7,global,reloc=2,class=CODE,delta=1
    18                           	psect	text8,global,reloc=2,class=CODE,delta=1
    19                           	psect	text9,global,reloc=2,class=CODE,delta=1
    20                           	psect	text10,global,reloc=2,class=CODE,delta=1
    21                           	psect	text11,global,reloc=2,class=CODE,delta=1
    22                           	psect	text12,global,reloc=2,class=CODE,delta=1
    23                           	psect	text13,global,reloc=2,class=CODE,delta=1
    24                           	psect	text14,global,reloc=2,class=CODE,delta=1
    25                           	psect	text15,global,reloc=2,class=CODE,delta=1
    26                           	psect	text16,global,reloc=2,class=CODE,delta=1
    27                           	psect	text17,global,reloc=2,class=CODE,delta=1
    28                           	psect	text18,global,reloc=2,class=CODE,delta=1
    29                           	psect	text19,global,reloc=2,class=CODE,delta=1
    30                           	psect	text20,global,reloc=2,class=CODE,delta=1
    31                           	psect	text21,global,reloc=2,class=CODE,delta=1
    32                           	psect	text22,global,reloc=2,class=CODE,delta=1
    33                           	psect	text23,global,reloc=2,class=CODE,delta=1
    34                           	psect	text24,global,reloc=2,class=CODE,delta=1
    35                           	psect	text25,global,reloc=2,class=CODE,delta=1
    36                           	psect	text26,global,reloc=2,class=CODE,delta=1
    37                           	psect	text27,global,reloc=2,class=CODE,delta=1
    38                           	psect	text28,global,reloc=2,class=CODE,delta=1
    39                           	psect	text29,global,reloc=2,class=CODE,delta=1
    40                           	psect	text30,global,reloc=2,class=CODE,delta=1
    41                           	psect	text31,global,reloc=2,class=CODE,delta=1
    42                           	psect	text32,global,reloc=2,class=CODE,delta=1
    43                           	psect	text33,global,reloc=2,class=CODE,delta=1
    44                           	psect	text34,global,reloc=2,class=CODE,delta=1
    45                           	psect	text35,global,reloc=2,class=CODE,delta=1
    46                           	psect	text36,global,reloc=2,class=CODE,delta=1
    47                           	psect	intsave_regs,global,class=BIGRAM,space=1,delta=1
    48                           	psect	rparam,global,class=COMRAM,space=1,delta=1
    49  0000                     
    50                           	psect	idataCOMRAM
    51  001E32                     __pidataCOMRAM:
    52                           	opt stack 0
    53                           
    54                           ;initializer for _LED_7seg
    55  001E32  01                 	db	1
    56  001E33  4F                 	db	79
    57  001E34  12                 	db	18
    58  001E35  06                 	db	6
    59  001E36  4C                 	db	76
    60  001E37  24                 	db	36
    61  001E38  20                 	db	32
    62  001E39  0F                 	db	15
    63  001E3A  00                 	db	0
    64  001E3B  0C                 	db	12
    65                           
    66                           	psect	smallconst
    67  001000                     __psmallconst:
    68                           	opt stack 0
    69  001000  00                 	db	0
    70  001001                     _dpowers:
    71                           	opt stack 0
    72  001001  0001               	dw	1
    73  001003  000A               	dw	10
    74  001005  0064               	dw	100
    75  001007  03E8               	dw	1000
    76  001009  2710               	dw	10000
    77  00100B                     __end_of_dpowers:
    78                           	opt stack 0
    79  0000                     _ADCON0	set	4034
    80  0000                     _ADCON0bits	set	4034
    81  0000                     _ADCON1	set	4033
    82  0000                     _ADCON2	set	4032
    83  0000                     _ADRESH	set	4036
    84  0000                     _ADRESL	set	4035
    85  0000                     _OSCCON	set	4051
    86  0000                     _PIE1bits	set	3997
    87  0000                     _PIR1bits	set	3998
    88  0000                     _PORTB	set	3969
    89  0000                     _PORTC	set	3970
    90  0000                     _PORTCbits	set	3970
    91  0000                     _PORTD	set	3971
    92  0000                     _PORTEbits	set	3972
    93  0000                     _RCSTA	set	4011
    94  0000                     _RCSTAbits	set	4011
    95  0000                     _SPBRG	set	4015
    96  0000                     _SPBRGH	set	4016
    97  0000                     _TRISA	set	3986
    98  0000                     _TRISB	set	3987
    99  0000                     _TRISC	set	3988
   100  0000                     _TRISCbits	set	3988
   101  0000                     _TRISD	set	3989
   102  0000                     _TRISE	set	3990
   103  0000                     _TXREG	set	4013
   104  0000                     _TXSTA	set	4012
   105  0000                     _TXSTAbits	set	4012
   106  0000                     _TRMT	set	32097
   107  00100B                     STR_1:
   108  00100B  54                 	db	84	;'T'
   109  00100C  68                 	db	104	;'h'
   110  00100D  65                 	db	101	;'e'
   111  00100E  20                 	db	32
   112  00100F  74                 	db	116	;'t'
   113  001010  65                 	db	101	;'e'
   114  001011  6D                 	db	109	;'m'
   115  001012  70                 	db	112	;'p'
   116  001013  65                 	db	101	;'e'
   117  001014  72                 	db	114	;'r'
   118  001015  61                 	db	97	;'a'
   119  001016  74                 	db	116	;'t'
   120  001017  75                 	db	117	;'u'
   121  001018  72                 	db	114	;'r'
   122  001019  65                 	db	101	;'e'
   123  00101A  20                 	db	32
   124  00101B  69                 	db	105	;'i'
   125  00101C  6E                 	db	110	;'n'
   126  00101D  20                 	db	32
   127  00101E  46                 	db	70	;'F'
   128  00101F  20                 	db	32
   129  001020  69                 	db	105	;'i'
   130  001021  73                 	db	115	;'s'
   131  001022  3A                 	db	58	;':'
   132  001023  20                 	db	32
   133  001024  25                 	db	37
   134  001025  64                 	db	100	;'d'
   135  001026  46                 	db	70	;'F'
   136  001027  0D                 	db	13
   137  001028  0A                 	db	10
   138  001029  00                 	db	0
   139  00102A                     STR_3:
   140  00102A  50                 	db	80	;'P'
   141  00102B  68                 	db	104	;'h'
   142  00102C  6F                 	db	111	;'o'
   143  00102D  74                 	db	116	;'t'
   144  00102E  6F                 	db	111	;'o'
   145  00102F  20                 	db	32
   146  001030  52                 	db	82	;'R'
   147  001031  65                 	db	101	;'e'
   148  001032  73                 	db	115	;'s'
   149  001033  69                 	db	105	;'i'
   150  001034  73                 	db	115	;'s'
   151  001035  74                 	db	116	;'t'
   152  001036  6F                 	db	111	;'o'
   153  001037  72                 	db	114	;'r'
   154  001038  20                 	db	32
   155  001039  56                 	db	86	;'V'
   156  00103A  6F                 	db	111	;'o'
   157  00103B  6C                 	db	108	;'l'
   158  00103C  74                 	db	116	;'t'
   159  00103D  61                 	db	97	;'a'
   160  00103E  67                 	db	103	;'g'
   161  00103F  65                 	db	101	;'e'
   162  001040  3A                 	db	58	;':'
   163  001041  0D                 	db	13
   164  001042  0A                 	db	10
   165  001043  00                 	db	0
   166  001044                     STR_2:
   167  001044  56                 	db	86	;'V'
   168  001045  6F                 	db	111	;'o'
   169  001046  6C                 	db	108	;'l'
   170  001047  74                 	db	116	;'t'
   171  001048  61                 	db	97	;'a'
   172  001049  67                 	db	103	;'g'
   173  00104A  65                 	db	101	;'e'
   174  00104B  20                 	db	32
   175  00104C  3D                 	db	61	;'='
   176  00104D  20                 	db	32
   177  00104E  25                 	db	37
   178  00104F  64                 	db	100	;'d'
   179  001050  20                 	db	32
   180  001051  6D                 	db	109	;'m'
   181  001052  56                 	db	86	;'V'
   182  001053  20                 	db	32
   183  001054  0D                 	db	13
   184  001055  00                 	db	0
   185  001056                     STR_4:
   186  001056  56                 	db	86	;'V'
   187  001057  20                 	db	32
   188  001058  3D                 	db	61	;'='
   189  001059  20                 	db	32
   190  00105A  25                 	db	37
   191  00105B  64                 	db	100	;'d'
   192  00105C  20                 	db	32
   193  00105D  6D                 	db	109	;'m'
   194  00105E  56                 	db	86	;'V'
   195  00105F  20                 	db	32
   196  001060  0D                 	db	13
   197  001061  0A                 	db	10
   198  001062  0A                 	db	10
   199  001063  00                 	db	0
   200                           
   201                           ; #config settings
   202  001064  00                 	db	0	; dummy byte at the end
   203  0000                     
   204                           	psect	cinit
   205  001D48                     __pcinit:
   206                           	opt stack 0
   207  001D48                     start_initialization:
   208                           	opt stack 0
   209  001D48                     __initialization:
   210                           	opt stack 0
   211                           
   212                           ; Initialize objects allocated to COMRAM (10 bytes)
   213                           ; load TBLPTR registers with __pidataCOMRAM
   214  001D48  0E32               	movlw	low __pidataCOMRAM
   215  001D4A  6EF6               	movwf	tblptrl,c
   216  001D4C  0E1E               	movlw	high __pidataCOMRAM
   217  001D4E  6EF7               	movwf	tblptrh,c
   218  001D50  0E00               	movlw	low (__pidataCOMRAM shr (0+16))
   219  001D52  6EF8               	movwf	tblptru,c
   220  001D54  EE00  F04C         	lfsr	0,__pdataCOMRAM
   221  001D58  EE10 F00A          	lfsr	1,10
   222  001D5C                     copy_data0:
   223  001D5C  0009               	tblrd		*+
   224  001D5E  CFF5 FFEE          	movff	tablat,postinc0
   225  001D62  50E5               	movf	postdec1,w,c
   226  001D64  50E1               	movf	fsr1l,w,c
   227  001D66  E1FA               	bnz	copy_data0
   228  001D68                     end_of_initialization:
   229                           	opt stack 0
   230  001D68                     __end_of__initialization:
   231                           	opt stack 0
   232  001D68  0E00               	movlw	low (__Lmediumconst shr (0+16))
   233  001D6A  6EF8               	movwf	tblptru,c
   234  001D6C  0100               	movlb	0
   235  001D6E  EF33  F008         	goto	_main	;jump to C main() function
   236                           tblptru	equ	0xFF8
   237                           tblptrh	equ	0xFF7
   238                           tblptrl	equ	0xFF6
   239                           tablat	equ	0xFF5
   240                           postinc0	equ	0xFEE
   241                           postdec1	equ	0xFE5
   242                           fsr1l	equ	0xFE1
   243                           
   244                           	psect	dataCOMRAM
   245  00004C                     __pdataCOMRAM:
   246                           	opt stack 0
   247  00004C                     _LED_7seg:
   248                           	opt stack 0
   249  00004C                     	ds	10
   250                           tblptru	equ	0xFF8
   251                           tblptrh	equ	0xFF7
   252                           tblptrl	equ	0xFF6
   253                           tablat	equ	0xFF5
   254                           postinc0	equ	0xFEE
   255                           postdec1	equ	0xFE5
   256                           fsr1l	equ	0xFE1
   257                           
   258                           	psect	cstackCOMRAM
   259  000001                     __pcstackCOMRAM:
   260                           	opt stack 0
   261  000001                     ?_get_full_ADC:
   262                           	opt stack 0
   263  000001                     ?___awdiv:
   264                           	opt stack 0
   265  000001                     ?___awmod:
   266                           	opt stack 0
   267  000001                     ?___lwdiv:
   268                           	opt stack 0
   269  000001                     ?___ftpack:
   270                           	opt stack 0
   271  000001                     ?___ftneg:
   272                           	opt stack 0
   273  000001                     ?___fttol:
   274                           	opt stack 0
   275  000001                     putch@c:
   276                           	opt stack 0
   277  000001                     Set_ADCON0@AN_pin:
   278                           	opt stack 0
   279  000001                     SET_RGB_D2@temp_f:
   280                           	opt stack 0
   281  000001                     SET_RGB_D3@voltage:
   282                           	opt stack 0
   283  000001                     WAIT_1_SEC@j:
   284                           	opt stack 0
   285  000001                     OpenUSART@spbrg:
   286                           	opt stack 0
   287  000001                     ___awdiv@dividend:
   288                           	opt stack 0
   289  000001                     ___awmod@dividend:
   290                           	opt stack 0
   291  000001                     ___lwdiv@dividend:
   292                           	opt stack 0
   293  000001                     ___ftpack@arg:
   294                           	opt stack 0
   295  000001                     ___ftneg@f1:
   296                           	opt stack 0
   297  000001                     ___fttol@f1:
   298                           	opt stack 0
   299                           
   300                           ; 3 bytes @ 0x0
   301  000001                     	ds	2
   302  000003                     ??_get_full_ADC:
   303  000003                     OpenUSART@config:
   304                           	opt stack 0
   305  000003                     ___awdiv@divisor:
   306                           	opt stack 0
   307  000003                     ___awmod@divisor:
   308                           	opt stack 0
   309  000003                     ___lwdiv@divisor:
   310                           	opt stack 0
   311                           
   312                           ; 2 bytes @ 0x2
   313  000003                     	ds	1
   314  000004                     ___ftpack@exp:
   315                           	opt stack 0
   316                           
   317                           ; 1 bytes @ 0x3
   318  000004                     	ds	1
   319  000005                     ??___fttol:
   320  000005                     ___awdiv@counter:
   321                           	opt stack 0
   322  000005                     ___awmod@counter:
   323                           	opt stack 0
   324  000005                     ___ftpack@sign:
   325                           	opt stack 0
   326  000005                     get_full_ADC@result:
   327                           	opt stack 0
   328  000005                     ___lwdiv@quotient:
   329                           	opt stack 0
   330                           
   331                           ; 2 bytes @ 0x4
   332  000005                     	ds	1
   333  000006                     ??___ftpack:
   334  000006                     ___awdiv@sign:
   335                           	opt stack 0
   336  000006                     ___awmod@sign:
   337                           	opt stack 0
   338                           
   339                           ; 1 bytes @ 0x5
   340  000006                     	ds	1
   341  000007                     ___lwdiv@counter:
   342                           	opt stack 0
   343  000007                     ___awdiv@quotient:
   344                           	opt stack 0
   345                           
   346                           ; 2 bytes @ 0x6
   347  000007                     	ds	1
   348  000008                     ?___lwmod:
   349                           	opt stack 0
   350  000008                     ___lwmod@dividend:
   351                           	opt stack 0
   352                           
   353                           ; 2 bytes @ 0x7
   354  000008                     	ds	1
   355  000009                     ?___awtoft:
   356                           	opt stack 0
   357  000009                     SET_RGB_D1@temp_f:
   358                           	opt stack 0
   359  000009                     ___awtoft@c:
   360                           	opt stack 0
   361                           
   362                           ; 2 bytes @ 0x8
   363  000009                     	ds	1
   364  00000A                     ___fttol@sign1:
   365                           	opt stack 0
   366  00000A                     ___lwmod@divisor:
   367                           	opt stack 0
   368                           
   369                           ; 2 bytes @ 0x9
   370  00000A                     	ds	1
   371  00000B                     SET_RGB_D1@t:
   372                           	opt stack 0
   373  00000B                     ___fttol@lval:
   374                           	opt stack 0
   375                           
   376                           ; 4 bytes @ 0xA
   377  00000B                     	ds	1
   378  00000C                     ___awtoft@sign:
   379                           	opt stack 0
   380  00000C                     ___lwmod@counter:
   381                           	opt stack 0
   382                           
   383                           ; 1 bytes @ 0xB
   384  00000C                     	ds	1
   385  00000D                     ?_printf:
   386                           	opt stack 0
   387  00000D                     ?___ftmul:
   388                           	opt stack 0
   389  00000D                     printf@f:
   390                           	opt stack 0
   391  00000D                     ___ftmul@f1:
   392                           	opt stack 0
   393                           
   394                           ; 3 bytes @ 0xC
   395  00000D                     	ds	2
   396  00000F                     ___fttol@exp1:
   397                           	opt stack 0
   398                           
   399                           ; 1 bytes @ 0xE
   400  00000F                     	ds	1
   401  000010                     ___ftmul@f2:
   402                           	opt stack 0
   403                           
   404                           ; 3 bytes @ 0xF
   405  000010                     	ds	2
   406  000012                     ??_printf:
   407                           
   408                           ; 0 bytes @ 0x11
   409  000012                     	ds	1
   410  000013                     ??___ftmul:
   411  000013                     printf@ap:
   412                           	opt stack 0
   413                           
   414                           ; 2 bytes @ 0x12
   415  000013                     	ds	2
   416  000015                     printf@flag:
   417                           	opt stack 0
   418                           
   419                           ; 1 bytes @ 0x14
   420  000015                     	ds	1
   421  000016                     printf@prec:
   422                           	opt stack 0
   423  000016                     ___ftmul@exp:
   424                           	opt stack 0
   425                           
   426                           ; 1 bytes @ 0x15
   427  000016                     	ds	1
   428  000017                     printf@val:
   429                           	opt stack 0
   430  000017                     ___ftmul@f3_as_product:
   431                           	opt stack 0
   432                           
   433                           ; 3 bytes @ 0x16
   434  000017                     	ds	2
   435  000019                     printf@c:
   436                           	opt stack 0
   437                           
   438                           ; 1 bytes @ 0x18
   439  000019                     	ds	1
   440  00001A                     ___ftmul@cntr:
   441                           	opt stack 0
   442                           
   443                           ; 1 bytes @ 0x19
   444  00001A                     	ds	1
   445  00001B                     ___ftmul@sign:
   446                           	opt stack 0
   447                           
   448                           ; 1 bytes @ 0x1A
   449  00001B                     	ds	1
   450  00001C                     ?___ftadd:
   451                           	opt stack 0
   452  00001C                     ___ftadd@f1:
   453                           	opt stack 0
   454                           
   455                           ; 3 bytes @ 0x1B
   456  00001C                     	ds	3
   457  00001F                     ___ftadd@f2:
   458                           	opt stack 0
   459                           
   460                           ; 3 bytes @ 0x1E
   461  00001F                     	ds	3
   462  000022                     ??___ftadd:
   463                           
   464                           ; 0 bytes @ 0x21
   465  000022                     	ds	3
   466  000025                     ___ftadd@sign:
   467                           	opt stack 0
   468                           
   469                           ; 1 bytes @ 0x24
   470  000025                     	ds	1
   471  000026                     ___ftadd@exp2:
   472                           	opt stack 0
   473                           
   474                           ; 1 bytes @ 0x25
   475  000026                     	ds	1
   476  000027                     ___ftadd@exp1:
   477                           	opt stack 0
   478                           
   479                           ; 1 bytes @ 0x26
   480  000027                     	ds	1
   481  000028                     ?___ftdiv:
   482                           	opt stack 0
   483  000028                     ___ftdiv@f1:
   484                           	opt stack 0
   485                           
   486                           ; 3 bytes @ 0x27
   487  000028                     	ds	3
   488  00002B                     ___ftdiv@f2:
   489                           	opt stack 0
   490                           
   491                           ; 3 bytes @ 0x2A
   492  00002B                     	ds	3
   493  00002E                     ??___ftdiv:
   494                           
   495                           ; 0 bytes @ 0x2D
   496  00002E                     	ds	3
   497  000031                     ___ftdiv@cntr:
   498                           	opt stack 0
   499                           
   500                           ; 1 bytes @ 0x30
   501  000031                     	ds	1
   502  000032                     ___ftdiv@f3:
   503                           	opt stack 0
   504                           
   505                           ; 3 bytes @ 0x31
   506  000032                     	ds	3
   507  000035                     ___ftdiv@exp:
   508                           	opt stack 0
   509                           
   510                           ; 1 bytes @ 0x34
   511  000035                     	ds	1
   512  000036                     ___ftdiv@sign:
   513                           	opt stack 0
   514                           
   515                           ; 1 bytes @ 0x35
   516  000036                     	ds	1
   517  000037                     ??_main:
   518                           
   519                           ; 0 bytes @ 0x36
   520  000037                     	ds	2
   521  000039                     main@temp_Celsius:
   522                           	opt stack 0
   523                           
   524                           ; 2 bytes @ 0x38
   525  000039                     	ds	2
   526  00003B                     main@temp_Fahren_float:
   527                           	opt stack 0
   528                           
   529                           ; 3 bytes @ 0x3A
   530  00003B                     	ds	3
   531  00003E                     main@UPPER_DIS:
   532                           	opt stack 0
   533                           
   534                           ; 1 bytes @ 0x3D
   535  00003E                     	ds	1
   536  00003F                     main@LOWER_DIS:
   537                           	opt stack 0
   538                           
   539                           ; 1 bytes @ 0x3E
   540  00003F                     	ds	1
   541  000040                     main@mVolt_in_float:
   542                           	opt stack 0
   543                           
   544                           ; 3 bytes @ 0x3F
   545  000040                     	ds	3
   546  000043                     main@temp_Celsius_float:
   547                           	opt stack 0
   548                           
   549                           ; 3 bytes @ 0x42
   550  000043                     	ds	3
   551  000046                     main@mVolt_in_1:
   552                           	opt stack 0
   553                           
   554                           ; 2 bytes @ 0x45
   555  000046                     	ds	2
   556  000048                     main@mVolt_in:
   557                           	opt stack 0
   558                           
   559                           ; 2 bytes @ 0x47
   560  000048                     	ds	2
   561  00004A                     main@temp_Fahren:
   562                           	opt stack 0
   563                           
   564                           ; 2 bytes @ 0x49
   565  00004A                     	ds	2
   566                           tblptru	equ	0xFF8
   567                           tblptrh	equ	0xFF7
   568                           tblptrl	equ	0xFF6
   569                           tablat	equ	0xFF5
   570                           postinc0	equ	0xFEE
   571                           postdec1	equ	0xFE5
   572                           fsr1l	equ	0xFE1
   573                           
   574 ;;
   575 ;;Main: autosize = 0, tempsize = 2, incstack = 0, save=0
   576 ;;
   577 ;; *************** function _main *****************
   578 ;; Defined at:
   579 ;;		line 283 in file "lab5p1.c"
   580 ;; Parameters:    Size  Location     Type
   581 ;;		None
   582 ;; Auto vars:     Size  Location     Type
   583 ;;  temp_Celsius    3   66[COMRAM] float 
   584 ;;  mVolt_in_flo    3   63[COMRAM] float 
   585 ;;  temp_Fahren_    3   58[COMRAM] float 
   586 ;;  temp_Fahren     2   73[COMRAM] int 
   587 ;;  mVolt_in        2   71[COMRAM] int 
   588 ;;  mVolt_in_1      2   69[COMRAM] int 
   589 ;;  temp_Celsius    2   56[COMRAM] int 
   590 ;;  LOWER_DIS       1   62[COMRAM] unsigned char 
   591 ;;  UPPER_DIS       1   61[COMRAM] unsigned char 
   592 ;; Return value:  Size  Location     Type
   593 ;;		None               void
   594 ;; Registers used:
   595 ;;		wreg, fsr2l, fsr2h, status,2, status,0, tblptrl, tblptrh, tblptru, prodl, prodh, cstack
   596 ;; Tracked objects:
   597 ;;		On entry : 0/0
   598 ;;		On exit  : 0/0
   599 ;;		Unchanged: 0/0
   600 ;; Data sizes:     COMRAM   BANK0   BANK1   BANK2   BANK3   BANK4   BANK5   BANK6   BANK7   BANK8   BANK9  BANK10  BANK1
      +1  BANK12  BANK13  BANK14  BANK15
   601 ;;      Params:         0       0       0       0       0       0       0       0       0       0       0       0       
      +0       0       0       0       0
   602 ;;      Locals:        19       0       0       0       0       0       0       0       0       0       0       0       
      +0       0       0       0       0
   603 ;;      Temps:          2       0       0       0       0       0       0       0       0       0       0       0       
      +0       0       0       0       0
   604 ;;      Totals:        21       0       0       0       0       0       0       0       0       0       0       0       
      +0       0       0       0       0
   605 ;;Total ram usage:       21 bytes
   606 ;; Hardware stack levels required when called:    2
   607 ;; This function calls:
   608 ;;		_Init_ADC
   609 ;;		_Init_TRIS
   610 ;;		_Init_UART
   611 ;;		_SET_RGB_D1
   612 ;;		_SET_RGB_D2
   613 ;;		_SET_RGB_D3
   614 ;;		_Set_ADCON0
   615 ;;		_WAIT_1_SEC
   616 ;;		___awdiv
   617 ;;		___awmod
   618 ;;		___awtoft
   619 ;;		___ftadd
   620 ;;		___ftdiv
   621 ;;		___ftmul
   622 ;;		___ftneg
   623 ;;		___fttol
   624 ;;		_get_full_ADC
   625 ;;		_printf
   626 ;; This function is called by:
   627 ;;		Startup code after reset
   628 ;; This function uses a non-reentrant model
   629 ;;
   630                           
   631                           	psect	text0
   632  001066                     __ptext0:
   633                           	opt stack 0
   634  001066                     _main:
   635                           	opt stack 29
   636                           
   637                           ;lab5p1.c: 285: Init_UART();
   638                           
   639                           ;incstack = 0
   640  001066  ECFB  F00E         	call	_Init_UART	;wreg free
   641                           
   642                           ;lab5p1.c: 286: Init_ADC();
   643  00106A  EC0C  F00F         	call	_Init_ADC	;wreg free
   644                           
   645                           ;lab5p1.c: 287: Init_TRIS();
   646  00106E  ECF0  F00E         	call	_Init_TRIS	;wreg free
   647  001072  D000               	goto	l2084
   648  001074                     l2084:
   649                           
   650                           ;lab5p1.c: 290: {
   651                           ;lab5p1.c: 291: Set_ADCON0(0);
   652  001074  0E00               	movlw	0
   653  001076  EC13  F00F         	call	_Set_ADCON0
   654                           
   655                           ;lab5p1.c: 293: int mVolt_in;
   656                           ;lab5p1.c: 294: float mVolt_in_float;
   657                           ;lab5p1.c: 295: int mVolt_in_1;
   658                           ;lab5p1.c: 296: float temp_Celsius_float;
   659                           ;lab5p1.c: 297: float temp_Fahren_float;
   660                           ;lab5p1.c: 298: int temp_Fahren;
   661                           ;lab5p1.c: 299: int temp_Celsius;
   662                           ;lab5p1.c: 300: char UPPER_DIS;
   663                           ;lab5p1.c: 301: char LOWER_DIS;
   664                           ;lab5p1.c: 303: mVolt_in = get_full_ADC();
   665  00107A  ECB9  F00E         	call	_get_full_ADC	;wreg free
   666  00107E  C001  F048         	movff	?_get_full_ADC,main@mVolt_in
   667  001082  C002  F049         	movff	?_get_full_ADC+1,main@mVolt_in+1
   668                           
   669                           ;lab5p1.c: 304: mVolt_in_float = mVolt_in * 4.0;
   670  001086  C048  F009         	movff	main@mVolt_in,___awtoft@c
   671  00108A  C049  F00A         	movff	main@mVolt_in+1,___awtoft@c+1
   672  00108E  EC86  F00E         	call	___awtoft	;wreg free
   673  001092  C009  F00D         	movff	?___awtoft,___ftmul@f1
   674  001096  C00A  F00E         	movff	?___awtoft+1,___ftmul@f1+1
   675  00109A  C00B  F00F         	movff	?___awtoft+2,___ftmul@f1+2
   676  00109E  0E00               	movlw	0
   677  0010A0  6E10               	movwf	___ftmul@f2,c
   678  0010A2  0E80               	movlw	128
   679  0010A4  6E11               	movwf	___ftmul@f2+1,c
   680  0010A6  0E40               	movlw	64
   681  0010A8  6E12               	movwf	___ftmul@f2+2,c
   682  0010AA  EC43  F00B         	call	___ftmul	;wreg free
   683  0010AE  C00D  F040         	movff	?___ftmul,main@mVolt_in_float
   684  0010B2  C00E  F041         	movff	?___ftmul+1,main@mVolt_in_float+1
   685  0010B6  C00F  F042         	movff	?___ftmul+2,main@mVolt_in_float+2
   686                           
   687                           ;lab5p1.c: 305: temp_Celsius_float = (1035.0 - mVolt_in_float) / 5.50;
   688  0010BA  0E60               	movlw	96
   689  0010BC  6E1F               	movwf	___ftadd@f2,c
   690  0010BE  0E81               	movlw	129
   691  0010C0  6E20               	movwf	___ftadd@f2+1,c
   692  0010C2  0E44               	movlw	68
   693  0010C4  6E21               	movwf	___ftadd@f2+2,c
   694  0010C6  C040  F001         	movff	main@mVolt_in_float,___ftneg@f1
   695  0010CA  C041  F002         	movff	main@mVolt_in_float+1,___ftneg@f1+1
   696  0010CE  C042  F003         	movff	main@mVolt_in_float+2,___ftneg@f1+2
   697  0010D2  ECCC  F00E         	call	___ftneg	;wreg free
   698  0010D6  C001  F01C         	movff	?___ftneg,___ftadd@f1
   699  0010DA  C002  F01D         	movff	?___ftneg+1,___ftadd@f1+1
   700  0010DE  C003  F01E         	movff	?___ftneg+2,___ftadd@f1+2
   701  0010E2  EC41  F009         	call	___ftadd	;wreg free
   702  0010E6  C01C  F028         	movff	?___ftadd,___ftdiv@f1
   703  0010EA  C01D  F029         	movff	?___ftadd+1,___ftdiv@f1+1
   704  0010EE  C01E  F02A         	movff	?___ftadd+2,___ftdiv@f1+2
   705  0010F2  0E00               	movlw	0
   706  0010F4  6E2B               	movwf	___ftdiv@f2,c
   707  0010F6  0EB0               	movlw	176
   708  0010F8  6E2C               	movwf	___ftdiv@f2+1,c
   709  0010FA  0E40               	movlw	64
   710  0010FC  6E2D               	movwf	___ftdiv@f2+2,c
   711  0010FE  EC32  F00C         	call	___ftdiv	;wreg free
   712  001102  C028  F043         	movff	?___ftdiv,main@temp_Celsius_float
   713  001106  C029  F044         	movff	?___ftdiv+1,main@temp_Celsius_float+1
   714  00110A  C02A  F045         	movff	?___ftdiv+2,main@temp_Celsius_float+2
   715                           
   716                           ;lab5p1.c: 306: temp_Fahren_float = (1.80 * temp_Celsius_float) + 32.0;
   717  00110E  0E66               	movlw	102
   718  001110  6E10               	movwf	___ftmul@f2,c
   719  001112  0EE6               	movlw	230
   720  001114  6E11               	movwf	___ftmul@f2+1,c
   721  001116  0E3F               	movlw	63
   722  001118  6E12               	movwf	___ftmul@f2+2,c
   723  00111A  C043  F00D         	movff	main@temp_Celsius_float,___ftmul@f1
   724  00111E  C044  F00E         	movff	main@temp_Celsius_float+1,___ftmul@f1+1
   725  001122  C045  F00F         	movff	main@temp_Celsius_float+2,___ftmul@f1+2
   726  001126  EC43  F00B         	call	___ftmul	;wreg free
   727  00112A  C00D  F01C         	movff	?___ftmul,___ftadd@f1
   728  00112E  C00E  F01D         	movff	?___ftmul+1,___ftadd@f1+1
   729  001132  C00F  F01E         	movff	?___ftmul+2,___ftadd@f1+2
   730  001136  0E00               	movlw	0
   731  001138  6E1F               	movwf	___ftadd@f2,c
   732  00113A  0E00               	movlw	0
   733  00113C  6E20               	movwf	___ftadd@f2+1,c
   734  00113E  0E42               	movlw	66
   735  001140  6E21               	movwf	___ftadd@f2+2,c
   736  001142  EC41  F009         	call	___ftadd	;wreg free
   737  001146  C01C  F03B         	movff	?___ftadd,main@temp_Fahren_float
   738  00114A  C01D  F03C         	movff	?___ftadd+1,main@temp_Fahren_float+1
   739  00114E  C01E  F03D         	movff	?___ftadd+2,main@temp_Fahren_float+2
   740                           
   741                           ;lab5p1.c: 307: temp_Fahren = (int) temp_Fahren_float;
   742  001152  C03B  F001         	movff	main@temp_Fahren_float,___fttol@f1
   743  001156  C03C  F002         	movff	main@temp_Fahren_float+1,___fttol@f1+1
   744  00115A  C03D  F003         	movff	main@temp_Fahren_float+2,___fttol@f1+2
   745  00115E  ECBF  F00B         	call	___fttol	;wreg free
   746  001162  C001  F04A         	movff	?___fttol,main@temp_Fahren
   747  001166  C002  F04B         	movff	?___fttol+1,main@temp_Fahren+1
   748                           
   749                           ;lab5p1.c: 308: temp_Celsius = (int) temp_Celsius_float;
   750  00116A  C043  F001         	movff	main@temp_Celsius_float,___fttol@f1
   751  00116E  C044  F002         	movff	main@temp_Celsius_float+1,___fttol@f1+1
   752  001172  C045  F003         	movff	main@temp_Celsius_float+2,___fttol@f1+2
   753  001176  ECBF  F00B         	call	___fttol	;wreg free
   754  00117A  C001  F039         	movff	?___fttol,main@temp_Celsius
   755  00117E  C002  F03A         	movff	?___fttol+1,main@temp_Celsius+1
   756                           
   757                           ;lab5p1.c: 310: UPPER_DIS = temp_Fahren/10;
   758  001182  C04A  F001         	movff	main@temp_Fahren,___awdiv@dividend
   759  001186  C04B  F002         	movff	main@temp_Fahren+1,___awdiv@dividend+1
   760  00118A  0E00               	movlw	0
   761  00118C  6E04               	movwf	___awdiv@divisor+1,c
   762  00118E  0E0A               	movlw	10
   763  001190  6E03               	movwf	___awdiv@divisor,c
   764  001192  EC06  F00D         	call	___awdiv	;wreg free
   765  001196  5001               	movf	?___awdiv,w,c
   766  001198  6E3E               	movwf	main@UPPER_DIS,c
   767                           
   768                           ;lab5p1.c: 311: LOWER_DIS = temp_Fahren%10;
   769  00119A  C04A  F001         	movff	main@temp_Fahren,___awmod@dividend
   770  00119E  C04B  F002         	movff	main@temp_Fahren+1,___awmod@dividend+1
   771  0011A2  0E00               	movlw	0
   772  0011A4  6E04               	movwf	___awmod@divisor+1,c
   773  0011A6  0E0A               	movlw	10
   774  0011A8  6E03               	movwf	___awmod@divisor,c
   775  0011AA  EC99  F00D         	call	___awmod	;wreg free
   776  0011AE  5001               	movf	?___awmod,w,c
   777  0011B0  6E3F               	movwf	main@LOWER_DIS,c
   778                           
   779                           ;lab5p1.c: 313: printf("The temperature in F is: %dF\r\n",temp_Fahren);
   780  0011B2  0E0B               	movlw	low STR_1
   781  0011B4  6E0D               	movwf	printf@f,c
   782  0011B6  0E10               	movlw	high STR_1
   783  0011B8  6E0E               	movwf	printf@f+1,c
   784  0011BA  C04A  F00F         	movff	main@temp_Fahren,?_printf+2
   785  0011BE  C04B  F010         	movff	main@temp_Fahren+1,?_printf+3
   786  0011C2  EC23  F00A         	call	_printf	;wreg free
   787                           
   788                           ;lab5p1.c: 314: printf ("Voltage = %d mV \r", mVolt_in_float);
   789  0011C6  0E44               	movlw	low STR_2
   790  0011C8  6E0D               	movwf	printf@f,c
   791  0011CA  0E10               	movlw	high STR_2
   792  0011CC  6E0E               	movwf	printf@f+1,c
   793  0011CE  C040  F00F         	movff	main@mVolt_in_float,?_printf+2
   794  0011D2  C041  F010         	movff	main@mVolt_in_float+1,?_printf+3
   795  0011D6  C042  F011         	movff	main@mVolt_in_float+2,?_printf+4
   796  0011DA  EC23  F00A         	call	_printf	;wreg free
   797                           
   798                           ;lab5p1.c: 316: PORTD = LED_7seg[LOWER_DIS];
   799  0011DE  503F               	movf	main@LOWER_DIS,w,c
   800  0011E0  0D01               	mullw	1
   801  0011E2  0E4C               	movlw	low _LED_7seg
   802  0011E4  24F3               	addwf	prodl,w,c
   803  0011E6  6ED9               	movwf	fsr2l,c
   804  0011E8  0E00               	movlw	high _LED_7seg
   805  0011EA  20F4               	addwfc	prodh,w,c
   806  0011EC  6EDA               	movwf	fsr2h,c
   807  0011EE  50DF               	movf	indf2,w,c
   808  0011F0  6E83               	movwf	3971,c	;volatile
   809                           
   810                           ;lab5p1.c: 317: PORTB = LED_7seg[UPPER_DIS];
   811  0011F2  503E               	movf	main@UPPER_DIS,w,c
   812  0011F4  0D01               	mullw	1
   813  0011F6  0E4C               	movlw	low _LED_7seg
   814  0011F8  24F3               	addwf	prodl,w,c
   815  0011FA  6ED9               	movwf	fsr2l,c
   816  0011FC  0E00               	movlw	high _LED_7seg
   817  0011FE  20F4               	addwfc	prodh,w,c
   818  001200  6EDA               	movwf	fsr2h,c
   819  001202  50DF               	movf	indf2,w,c
   820  001204  6E81               	movwf	3969,c	;volatile
   821                           
   822                           ;lab5p1.c: 319: SET_RGB_D1(temp_Fahren);
   823  001206  C04A  F009         	movff	main@temp_Fahren,SET_RGB_D1@temp_f
   824  00120A  C04B  F00A         	movff	main@temp_Fahren+1,SET_RGB_D1@temp_f+1
   825  00120E  EC66  F00E         	call	_SET_RGB_D1	;wreg free
   826                           
   827                           ;lab5p1.c: 320: SET_RGB_D2(temp_Fahren);
   828  001212  C04A  F001         	movff	main@temp_Fahren,SET_RGB_D2@temp_f
   829  001216  C04B  F002         	movff	main@temp_Fahren+1,SET_RGB_D2@temp_f+1
   830  00121A  ECC2  F00A         	call	_SET_RGB_D2	;wreg free
   831                           
   832                           ;lab5p1.c: 323: Set_ADCON0(2);
   833  00121E  0E02               	movlw	2
   834  001220  EC13  F00F         	call	_Set_ADCON0
   835                           
   836                           ;lab5p1.c: 324: mVolt_in = get_full_ADC();
   837  001224  ECB9  F00E         	call	_get_full_ADC	;wreg free
   838  001228  C001  F048         	movff	?_get_full_ADC,main@mVolt_in
   839  00122C  C002  F049         	movff	?_get_full_ADC+1,main@mVolt_in+1
   840                           
   841                           ;lab5p1.c: 325: mVolt_in_1 = mVolt_in * 4;
   842  001230  C048  F037         	movff	main@mVolt_in,??_main
   843  001234  C049  F038         	movff	main@mVolt_in+1,??_main+1
   844  001238  90D8               	bcf	status,0,c
   845  00123A  3637               	rlcf	??_main,f,c
   846  00123C  3638               	rlcf	??_main+1,f,c
   847  00123E  90D8               	bcf	status,0,c
   848  001240  3637               	rlcf	??_main,f,c
   849  001242  3638               	rlcf	??_main+1,f,c
   850  001244  C037  F046         	movff	??_main,main@mVolt_in_1
   851  001248  C038  F047         	movff	??_main+1,main@mVolt_in_1+1
   852                           
   853                           ;lab5p1.c: 327: SET_RGB_D3(mVolt_in_1);
   854  00124C  C046  F001         	movff	main@mVolt_in_1,SET_RGB_D3@voltage
   855  001250  C047  F002         	movff	main@mVolt_in_1+1,SET_RGB_D3@voltage+1
   856  001254  EC51  F00D         	call	_SET_RGB_D3	;wreg free
   857                           
   858                           ;lab5p1.c: 329: printf ("Photo Resistor Voltage:\r\n");
   859  001258  0E2A               	movlw	low STR_3
   860  00125A  6E0D               	movwf	printf@f,c
   861  00125C  0E10               	movlw	high STR_3
   862  00125E  6E0E               	movwf	printf@f+1,c
   863  001260  EC23  F00A         	call	_printf	;wreg free
   864                           
   865                           ;lab5p1.c: 330: printf ("V = %d mV \r\n\n", mVolt_in_1);
   866  001264  0E56               	movlw	low STR_4
   867  001266  6E0D               	movwf	printf@f,c
   868  001268  0E10               	movlw	high STR_4
   869  00126A  6E0E               	movwf	printf@f+1,c
   870  00126C  C046  F00F         	movff	main@mVolt_in_1,?_printf+2
   871  001270  C047  F010         	movff	main@mVolt_in_1+1,?_printf+3
   872  001274  EC23  F00A         	call	_printf	;wreg free
   873                           
   874                           ;lab5p1.c: 332: WAIT_1_SEC();
   875  001278  ECDE  F00E         	call	_WAIT_1_SEC	;wreg free
   876  00127C  D6FB               	goto	l2084
   877  00127E  EF00  F000         	goto	start
   878  001282                     __end_of_main:
   879                           	opt stack 0
   880                           tblptru	equ	0xFF8
   881                           tblptrh	equ	0xFF7
   882                           tblptrl	equ	0xFF6
   883                           tablat	equ	0xFF5
   884                           prodh	equ	0xFF4
   885                           prodl	equ	0xFF3
   886                           postinc0	equ	0xFEE
   887                           postdec1	equ	0xFE5
   888                           fsr1l	equ	0xFE1
   889                           indf2	equ	0xFDF
   890                           fsr2h	equ	0xFDA
   891                           fsr2l	equ	0xFD9
   892                           status	equ	0xFD8
   893                           
   894 ;; *************** function _printf *****************
   895 ;; Defined at:
   896 ;;		line 464 in file "D:\Program Files (x86)\Microchip\xc8\v1.34\sources\common\doprnt.c"
   897 ;; Parameters:    Size  Location     Type
   898 ;;  f               2   12[COMRAM] PTR const unsigned char 
   899 ;;		 -> STR_4(14), STR_3(26), STR_2(18), STR_1(31), 
   900 ;; Auto vars:     Size  Location     Type
   901 ;;  tmpval          4    0        struct .
   902 ;;  cp              3    0        PTR const unsigned char 
   903 ;;  val             2   22[COMRAM] unsigned int 
   904 ;;  ap              2   18[COMRAM] PTR void [1]
   905 ;;		 -> ?_printf(2), 
   906 ;;  len             2    0        unsigned int 
   907 ;;  c               1   24[COMRAM] char 
   908 ;;  prec            1   21[COMRAM] char 
   909 ;;  flag            1   20[COMRAM] unsigned char 
   910 ;; Return value:  Size  Location     Type
   911 ;;                  2   12[COMRAM] int 
   912 ;; Registers used:
   913 ;;		wreg, fsr2l, fsr2h, status,2, status,0, tblptrl, tblptrh, tblptru, prodl, prodh, cstack
   914 ;; Tracked objects:
   915 ;;		On entry : 0/0
   916 ;;		On exit  : 0/0
   917 ;;		Unchanged: 0/0
   918 ;; Data sizes:     COMRAM   BANK0   BANK1   BANK2   BANK3   BANK4   BANK5   BANK6   BANK7   BANK8   BANK9  BANK10  BANK1
      +1  BANK12  BANK13  BANK14  BANK15
   919 ;;      Params:         5       0       0       0       0       0       0       0       0       0       0       0       
      +0       0       0       0       0
   920 ;;      Locals:         7       0       0       0       0       0       0       0       0       0       0       0       
      +0       0       0       0       0
   921 ;;      Temps:          1       0       0       0       0       0       0       0       0       0       0       0       
      +0       0       0       0       0
   922 ;;      Totals:        13       0       0       0       0       0       0       0       0       0       0       0       
      +0       0       0       0       0
   923 ;;Total ram usage:       13 bytes
   924 ;; Hardware stack levels used:    1
   925 ;; Hardware stack levels required when called:    1
   926 ;; This function calls:
   927 ;;		___lwdiv
   928 ;;		___lwmod
   929 ;;		_putch
   930 ;; This function is called by:
   931 ;;		_main
   932 ;; This function uses a non-reentrant model
   933 ;;
   934                           
   935                           	psect	text1
   936  001446                     __ptext1:
   937                           	opt stack 0
   938  001446                     _printf:
   939                           	opt stack 29
   940                           
   941                           ;doprnt.c: 466: va_list ap;
   942                           ;doprnt.c: 499: signed char c;
   943                           ;doprnt.c: 506: signed char prec;
   944                           ;doprnt.c: 508: unsigned char flag;
   945                           ;doprnt.c: 523: union {
   946                           ;doprnt.c: 524: unsigned long vd;
   947                           ;doprnt.c: 525: double integ;
   948                           ;doprnt.c: 526: } tmpval;
   949                           ;doprnt.c: 528: unsigned int val;
   950                           ;doprnt.c: 529: unsigned len;
   951                           ;doprnt.c: 530: const char * cp;
   952                           ;doprnt.c: 533: *ap = __va_start();
   953                           
   954                           ;incstack = 0
   955  001446  0E0F               	movlw	low (?_printf+2)
   956  001448  6E13               	movwf	printf@ap,c
   957  00144A  0E00               	movlw	high (?_printf+2)
   958  00144C  6E14               	movwf	printf@ap+1,c
   959                           
   960                           ;doprnt.c: 536: while(c = *f++) {
   961  00144E  D08B               	goto	l1818
   962  001450                     l1772:
   963                           
   964                           ;doprnt.c: 538: if(c != '%')
   965  001450  0E25               	movlw	37
   966  001452  1819               	xorwf	printf@c,w,c
   967  001454  B4D8               	btfsc	status,2,c
   968  001456  D004               	goto	l1776
   969                           
   970                           ;doprnt.c: 540: {
   971                           ;doprnt.c: 541: (putch(c) );
   972  001458  5019               	movf	printf@c,w,c
   973  00145A  EC05  F00F         	call	_putch
   974                           
   975                           ;doprnt.c: 542: continue;
   976  00145E  D083               	goto	l1818
   977  001460                     l1776:
   978                           
   979                           ;doprnt.c: 543: }
   980                           ;doprnt.c: 548: flag = 0;
   981  001460  0E00               	movlw	0
   982  001462  6E15               	movwf	printf@flag,c
   983                           
   984                           ;doprnt.c: 635: switch(c = *f++) {
   985  001464  D004               	goto	l1780
   986                           
   987                           ;doprnt.c: 638: goto alldone;
   988                           
   989                           ;doprnt.c: 637: case 0:
   990  001466  D08D               	goto	l213
   991                           
   992                           ;doprnt.c: 698: case 'i':
   993                           ;doprnt.c: 699: break;
   994                           
   995                           ;doprnt.c: 697: case 'd':
   996  001468  D015               	goto	l1782
   997                           
   998                           ;doprnt.c: 813: continue;
   999                           
  1000                           ;doprnt.c: 802: default:
  1001  00146A  D07D               	goto	l1818
  1002                           
  1003                           ;doprnt.c: 822: }
  1004  00146C  D013               	goto	l1782
  1005  00146E                     l1780:
  1006  00146E  C00D  FFF6         	movff	printf@f,tblptrl
  1007  001472  C00E  FFF7         	movff	printf@f+1,tblptrh
  1008  001476  4A0D               	infsnz	printf@f,f,c
  1009  001478  2A0E               	incf	printf@f+1,f,c
  1010  00147A                     	if	0	;tblptru may be non-zero
  1011  00147A                     	endif
  1012  00147A                     	if	0	;tblptru may be non-zero
  1013  00147A                     	endif
  1014  00147A  0008               	tblrd		*
  1015  00147C  CFF5 F019          	movff	tablat,printf@c
  1016  001480  5019               	movf	printf@c,w,c
  1017                           
  1018                           ; Switch size 1, requested type "space"
  1019                           ; Number of cases is 3, Range of values is 0 to 105
  1020                           ; switch strategies available:
  1021                           ; Name         Instructions Cycles
  1022                           ; simple_byte           10     6 (average)
  1023                           ;	Chosen strategy is simple_byte
  1024  001482  0A00               	xorlw	0	; case 0
  1025  001484  B4D8               	btfsc	status,2,c
  1026  001486  D07D               	goto	l213
  1027  001488  0A64               	xorlw	100	; case 100
  1028  00148A  B4D8               	btfsc	status,2,c
  1029  00148C  D003               	goto	l1782
  1030  00148E  0A0D               	xorlw	13	; case 105
  1031  001490  A4D8               	btfss	status,2,c
  1032  001492  D069               	goto	l1818
  1033  001494                     l1782:
  1034                           
  1035                           ;doprnt.c: 1253: {
  1036                           ;doprnt.c: 1259: val = (int)(*(int *)__va_arg((*(int **)ap), (int)0));
  1037  001494  C013  FFD9         	movff	printf@ap,fsr2l
  1038  001498  C014  FFDA         	movff	printf@ap+1,fsr2h
  1039  00149C  CFDE F017          	movff	postinc2,printf@val
  1040  0014A0  CFDD F018          	movff	postdec2,printf@val+1
  1041  0014A4  0E02               	movlw	2
  1042  0014A6  2613               	addwf	printf@ap,f,c
  1043  0014A8  0E00               	movlw	0
  1044  0014AA  2214               	addwfc	printf@ap+1,f,c
  1045                           
  1046                           ;doprnt.c: 1261: if((int)val < 0) {
  1047  0014AC  AE18               	btfss	printf@val+1,7,c
  1048  0014AE  D007               	goto	l1792
  1049                           
  1050                           ;doprnt.c: 1262: flag |= 0x03;
  1051  0014B0  0E03               	movlw	3
  1052  0014B2  1215               	iorwf	printf@flag,f,c
  1053                           
  1054                           ;doprnt.c: 1263: val = -val;
  1055  0014B4  6C17               	negf	printf@val,c
  1056  0014B6  1E18               	comf	printf@val+1,f,c
  1057  0014B8  B0D8               	btfsc	status,0,c
  1058  0014BA  2A18               	incf	printf@val+1,f,c
  1059  0014BC  D000               	goto	l1792
  1060  0014BE                     l1792:
  1061                           
  1062                           ;doprnt.c: 1264: }
  1063                           ;doprnt.c: 1266: }
  1064                           ;doprnt.c: 1305: for(c = 1 ; c != sizeof dpowers/sizeof dpowers[0] ; c++)
  1065  0014BE  0E01               	movlw	1
  1066  0014C0  6E19               	movwf	printf@c,c
  1067  0014C2                     l1794:
  1068  0014C2  0E05               	movlw	5
  1069  0014C4  1819               	xorwf	printf@c,w,c
  1070  0014C6  B4D8               	btfsc	status,2,c
  1071  0014C8  D016               	goto	l1806
  1072  0014CA  D001               	goto	l1798
  1073  0014CC  D014               	goto	l1806
  1074  0014CE                     l1798:
  1075                           
  1076                           ;doprnt.c: 1306: if(val < dpowers[c])
  1077  0014CE  5019               	movf	printf@c,w,c
  1078  0014D0  0D02               	mullw	2
  1079  0014D2  0E01               	movlw	low _dpowers
  1080  0014D4  24F3               	addwf	prodl,w,c
  1081  0014D6  6EF6               	movwf	tblptrl,c
  1082  0014D8  0E10               	movlw	high _dpowers
  1083  0014DA  20F4               	addwfc	prodh,w,c
  1084  0014DC  6EF7               	movwf	tblptrh,c
  1085  0014DE                     	if	0	;There are less than 3 active tblptr bytes
  1086  0014DE                     	endif
  1087  0014DE  0009               	tblrd		*+
  1088  0014E0  50F5               	movf	tablat,w,c
  1089  0014E2  5C17               	subwf	printf@val,w,c
  1090  0014E4  0009               	tblrd		*+
  1091  0014E6  50F5               	movf	tablat,w,c
  1092  0014E8  5818               	subwfb	printf@val+1,w,c
  1093  0014EA  A0D8               	btfss	status,0,c
  1094  0014EC  D004               	goto	l1806
  1095  0014EE  D001               	goto	l1802
  1096                           
  1097                           ;doprnt.c: 1307: break;
  1098  0014F0  D002               	goto	l1806
  1099  0014F2                     l1802:
  1100  0014F2  2A19               	incf	printf@c,f,c
  1101  0014F4  D7E6               	goto	l1794
  1102  0014F6                     l1806:
  1103                           
  1104                           ;doprnt.c: 1422: {
  1105                           ;doprnt.c: 1438: if(flag & 0x03)
  1106  0014F6  C015  F012         	movff	printf@flag,??_printf
  1107  0014FA  0E03               	movlw	3
  1108  0014FC  1612               	andwf	??_printf,f,c
  1109  0014FE  B4D8               	btfsc	status,2,c
  1110  001500  D004               	goto	l1810
  1111                           
  1112                           ;doprnt.c: 1439: (putch('-') );
  1113  001502  0E2D               	movlw	45
  1114  001504  EC05  F00F         	call	_putch
  1115  001508  D000               	goto	l1810
  1116  00150A                     l1810:
  1117                           
  1118                           ;doprnt.c: 1469: }
  1119                           ;doprnt.c: 1472: prec = c;
  1120  00150A  C019  F016         	movff	printf@c,printf@prec
  1121                           
  1122                           ;doprnt.c: 1474: while(prec--) {
  1123  00150E  D025               	goto	l1816
  1124  001510                     l1812:
  1125                           
  1126                           ;doprnt.c: 1478: {
  1127                           ;doprnt.c: 1489: c = (val / dpowers[prec]) % 10 + '0';
  1128  001510  5016               	movf	printf@prec,w,c
  1129  001512  0D02               	mullw	2
  1130  001514  0E01               	movlw	low _dpowers
  1131  001516  24F3               	addwf	prodl,w,c
  1132  001518  6EF6               	movwf	tblptrl,c
  1133  00151A  0E10               	movlw	high _dpowers
  1134  00151C  20F4               	addwfc	prodh,w,c
  1135  00151E  6EF7               	movwf	tblptrh,c
  1136  001520                     	if	0	;There are less than 3 active tblptr bytes
  1137  001520                     	endif
  1138  001520  0009               	tblrd		*+
  1139  001522  CFF5 F003          	movff	tablat,___lwdiv@divisor
  1140  001526  000A               	tblrd		*-
  1141  001528  CFF5 F004          	movff	tablat,___lwdiv@divisor+1
  1142  00152C  C017  F001         	movff	printf@val,___lwdiv@dividend
  1143  001530  C018  F002         	movff	printf@val+1,___lwdiv@dividend+1
  1144  001534  EC12  F00E         	call	___lwdiv	;wreg free
  1145  001538  C001  F008         	movff	?___lwdiv,___lwmod@dividend
  1146  00153C  C002  F009         	movff	?___lwdiv+1,___lwmod@dividend+1
  1147  001540  0E00               	movlw	0
  1148  001542  6E0B               	movwf	___lwmod@divisor+1,c
  1149  001544  0E0A               	movlw	10
  1150  001546  6E0A               	movwf	___lwmod@divisor,c
  1151  001548  EC40  F00E         	call	___lwmod	;wreg free
  1152  00154C  5008               	movf	?___lwmod,w,c
  1153  00154E  0F30               	addlw	48
  1154  001550  6E19               	movwf	printf@c,c
  1155                           
  1156                           ;doprnt.c: 1523: }
  1157                           ;doprnt.c: 1524: (putch(c) );
  1158  001552  5019               	movf	printf@c,w,c
  1159  001554  EC05  F00F         	call	_putch
  1160  001558  D000               	goto	l1816
  1161  00155A                     l1816:
  1162  00155A  0616               	decf	printf@prec,f,c
  1163  00155C  2816               	incf	printf@prec,w,c
  1164  00155E  B4D8               	btfsc	status,2,c
  1165  001560  D002               	goto	l1818
  1166  001562  D7D6               	goto	l1812
  1167  001564  D000               	goto	l1818
  1168  001566                     l1818:
  1169  001566  C00D  FFF6         	movff	printf@f,tblptrl
  1170  00156A  C00E  FFF7         	movff	printf@f+1,tblptrh
  1171  00156E  4A0D               	infsnz	printf@f,f,c
  1172  001570  2A0E               	incf	printf@f+1,f,c
  1173  001572                     	if	0	;tblptru may be non-zero
  1174  001572                     	endif
  1175  001572                     	if	0	;tblptru may be non-zero
  1176  001572                     	endif
  1177  001572  0008               	tblrd		*
  1178  001574  CFF5 F019          	movff	tablat,printf@c
  1179  001578  5019               	movf	printf@c,w,c
  1180  00157A  B4D8               	btfsc	status,2,c
  1181  00157C  D002               	goto	l213
  1182  00157E  D768               	goto	l1772
  1183  001580  D000               	goto	l213
  1184  001582                     l213:
  1185  001582  0012               	return		;funcret
  1186  001584                     __end_of_printf:
  1187                           	opt stack 0
  1188                           tblptru	equ	0xFF8
  1189                           tblptrh	equ	0xFF7
  1190                           tblptrl	equ	0xFF6
  1191                           tablat	equ	0xFF5
  1192                           prodh	equ	0xFF4
  1193                           prodl	equ	0xFF3
  1194                           postinc0	equ	0xFEE
  1195                           postdec1	equ	0xFE5
  1196                           fsr1l	equ	0xFE1
  1197                           indf2	equ	0xFDF
  1198                           postinc2	equ	0xFDE
  1199                           postdec2	equ	0xFDD
  1200                           fsr2h	equ	0xFDA
  1201                           fsr2l	equ	0xFD9
  1202                           status	equ	0xFD8
  1203                           
  1204 ;; *************** function _putch *****************
  1205 ;; Defined at:
  1206 ;;		line 193 in file "lab5p1.c"
  1207 ;; Parameters:    Size  Location     Type
  1208 ;;  c               1    wreg     unsigned char 
  1209 ;; Auto vars:     Size  Location     Type
  1210 ;;  c               1    0[COMRAM] unsigned char 
  1211 ;; Return value:  Size  Location     Type
  1212 ;;		None               void
  1213 ;; Registers used:
  1214 ;;		wreg
  1215 ;; Tracked objects:
  1216 ;;		On entry : 0/0
  1217 ;;		On exit  : 0/0
  1218 ;;		Unchanged: 0/0
  1219 ;; Data sizes:     COMRAM   BANK0   BANK1   BANK2   BANK3   BANK4   BANK5   BANK6   BANK7   BANK8   BANK9  BANK10  BANK1
      +1  BANK12  BANK13  BANK14  BANK15
  1220 ;;      Params:         0       0       0       0       0       0       0       0       0       0       0       0       
      +0       0       0       0       0
  1221 ;;      Locals:         1       0       0       0       0       0       0       0       0       0       0       0       
      +0       0       0       0       0
  1222 ;;      Temps:          0       0       0       0       0       0       0       0       0       0       0       0       
      +0       0       0       0       0
  1223 ;;      Totals:         1       0       0       0       0       0       0       0       0       0       0       0       
      +0       0       0       0       0
  1224 ;;Total ram usage:        1 bytes
  1225 ;; Hardware stack levels used:    1
  1226 ;; This function calls:
  1227 ;;		Nothing
  1228 ;; This function is called by:
  1229 ;;		_printf
  1230 ;; This function uses a non-reentrant model
  1231 ;;
  1232                           
  1233                           	psect	text2
  1234  001E0A                     __ptext2:
  1235                           	opt stack 0
  1236  001E0A                     _putch:
  1237                           	opt stack 29
  1238                           
  1239                           ;incstack = 0
  1240                           ;putch@c stored from wreg
  1241  001E0A  6E01               	movwf	putch@c,c
  1242                           
  1243                           ;lab5p1.c: 195: while (!TRMT);
  1244  001E0C  D000               	goto	l119
  1245  001E0E                     l119:
  1246  001E0E  A2AC               	btfss	4012,1,c	;volatile
  1247  001E10  D7FE               	goto	l119
  1248                           
  1249                           ;lab5p1.c: 196: TXREG = c;
  1250  001E12  C001  FFAD         	movff	putch@c,4013	;volatile
  1251  001E16  0012               	return		;funcret
  1252  001E18                     __end_of_putch:
  1253                           	opt stack 0
  1254                           tblptru	equ	0xFF8
  1255                           tblptrh	equ	0xFF7
  1256                           tblptrl	equ	0xFF6
  1257                           tablat	equ	0xFF5
  1258                           prodh	equ	0xFF4
  1259                           prodl	equ	0xFF3
  1260                           postinc0	equ	0xFEE
  1261                           postdec1	equ	0xFE5
  1262                           fsr1l	equ	0xFE1
  1263                           indf2	equ	0xFDF
  1264                           postinc2	equ	0xFDE
  1265                           postdec2	equ	0xFDD
  1266                           fsr2h	equ	0xFDA
  1267                           fsr2l	equ	0xFD9
  1268                           status	equ	0xFD8
  1269                           
  1270 ;; *************** function ___lwmod *****************
  1271 ;; Defined at:
  1272 ;;		line 8 in file "D:\Program Files (x86)\Microchip\xc8\v1.34\sources\common\lwmod.c"
  1273 ;; Parameters:    Size  Location     Type
  1274 ;;  dividend        2    7[COMRAM] unsigned int 
  1275 ;;  divisor         2    9[COMRAM] unsigned int 
  1276 ;; Auto vars:     Size  Location     Type
  1277 ;;  counter         1   11[COMRAM] unsigned char 
  1278 ;; Return value:  Size  Location     Type
  1279 ;;                  2    7[COMRAM] unsigned int 
  1280 ;; Registers used:
  1281 ;;		wreg, status,2, status,0
  1282 ;; Tracked objects:
  1283 ;;		On entry : 0/0
  1284 ;;		On exit  : 0/0
  1285 ;;		Unchanged: 0/0
  1286 ;; Data sizes:     COMRAM   BANK0   BANK1   BANK2   BANK3   BANK4   BANK5   BANK6   BANK7   BANK8   BANK9  BANK10  BANK1
      +1  BANK12  BANK13  BANK14  BANK15
  1287 ;;      Params:         4       0       0       0       0       0       0       0       0       0       0       0       
      +0       0       0       0       0
  1288 ;;      Locals:         1       0       0       0       0       0       0       0       0       0       0       0       
      +0       0       0       0       0
  1289 ;;      Temps:          0       0       0       0       0       0       0       0       0       0       0       0       
      +0       0       0       0       0
  1290 ;;      Totals:         5       0       0       0       0       0       0       0       0       0       0       0       
      +0       0       0       0       0
  1291 ;;Total ram usage:        5 bytes
  1292 ;; Hardware stack levels used:    1
  1293 ;; This function calls:
  1294 ;;		Nothing
  1295 ;; This function is called by:
  1296 ;;		_printf
  1297 ;; This function uses a non-reentrant model
  1298 ;;
  1299                           
  1300                           	psect	text3
  1301  001C80                     __ptext3:
  1302                           	opt stack 0
  1303  001C80                     ___lwmod:
  1304                           	opt stack 29
  1305                           
  1306                           ;incstack = 0
  1307  001C80  500A               	movf	___lwmod@divisor,w,c
  1308  001C82  100B               	iorwf	___lwmod@divisor+1,w,c
  1309  001C84  B4D8               	btfsc	status,2,c
  1310  001C86  D01D               	goto	l777
  1311  001C88  0E01               	movlw	1
  1312  001C8A  6E0C               	movwf	___lwmod@counter,c
  1313  001C8C  D005               	goto	l1674
  1314  001C8E                     l1672:
  1315  001C8E  90D8               	bcf	status,0,c
  1316  001C90  360A               	rlcf	___lwmod@divisor,f,c
  1317  001C92  360B               	rlcf	___lwmod@divisor+1,f,c
  1318  001C94  2A0C               	incf	___lwmod@counter,f,c
  1319  001C96  D000               	goto	l1674
  1320  001C98                     l1674:
  1321  001C98  BE0B               	btfsc	___lwmod@divisor+1,7,c
  1322  001C9A  D002               	goto	l1676
  1323  001C9C  D7F8               	goto	l1672
  1324  001C9E  D000               	goto	l1676
  1325  001CA0                     l1676:
  1326  001CA0  500A               	movf	___lwmod@divisor,w,c
  1327  001CA2  5C08               	subwf	___lwmod@dividend,w,c
  1328  001CA4  500B               	movf	___lwmod@divisor+1,w,c
  1329  001CA6  5809               	subwfb	___lwmod@dividend+1,w,c
  1330  001CA8  A0D8               	btfss	status,0,c
  1331  001CAA  D005               	goto	l1680
  1332  001CAC  500A               	movf	___lwmod@divisor,w,c
  1333  001CAE  5E08               	subwf	___lwmod@dividend,f,c
  1334  001CB0  500B               	movf	___lwmod@divisor+1,w,c
  1335  001CB2  5A09               	subwfb	___lwmod@dividend+1,f,c
  1336  001CB4  D000               	goto	l1680
  1337  001CB6                     l1680:
  1338  001CB6  90D8               	bcf	status,0,c
  1339  001CB8  320B               	rrcf	___lwmod@divisor+1,f,c
  1340  001CBA  320A               	rrcf	___lwmod@divisor,f,c
  1341  001CBC  2E0C               	decfsz	___lwmod@counter,f,c
  1342  001CBE  D7F0               	goto	l1676
  1343  001CC0  D000               	goto	l777
  1344  001CC2                     l777:
  1345  001CC2  C008  F008         	movff	___lwmod@dividend,?___lwmod
  1346  001CC6  C009  F009         	movff	___lwmod@dividend+1,?___lwmod+1
  1347  001CCA  0012               	return		;funcret
  1348  001CCC                     __end_of___lwmod:
  1349                           	opt stack 0
  1350                           tblptru	equ	0xFF8
  1351                           tblptrh	equ	0xFF7
  1352                           tblptrl	equ	0xFF6
  1353                           tablat	equ	0xFF5
  1354                           prodh	equ	0xFF4
  1355                           prodl	equ	0xFF3
  1356                           postinc0	equ	0xFEE
  1357                           postdec1	equ	0xFE5
  1358                           fsr1l	equ	0xFE1
  1359                           indf2	equ	0xFDF
  1360                           postinc2	equ	0xFDE
  1361                           postdec2	equ	0xFDD
  1362                           fsr2h	equ	0xFDA
  1363                           fsr2l	equ	0xFD9
  1364                           status	equ	0xFD8
  1365                           
  1366 ;; *************** function ___lwdiv *****************
  1367 ;; Defined at:
  1368 ;;		line 8 in file "D:\Program Files (x86)\Microchip\xc8\v1.34\sources\common\lwdiv.c"
  1369 ;; Parameters:    Size  Location     Type
  1370 ;;  dividend        2    0[COMRAM] unsigned int 
  1371 ;;  divisor         2    2[COMRAM] unsigned int 
  1372 ;; Auto vars:     Size  Location     Type
  1373 ;;  quotient        2    4[COMRAM] unsigned int 
  1374 ;;  counter         1    6[COMRAM] unsigned char 
  1375 ;; Return value:  Size  Location     Type
  1376 ;;                  2    0[COMRAM] unsigned int 
  1377 ;; Registers used:
  1378 ;;		wreg, status,2, status,0
  1379 ;; Tracked objects:
  1380 ;;		On entry : 0/0
  1381 ;;		On exit  : 0/0
  1382 ;;		Unchanged: 0/0
  1383 ;; Data sizes:     COMRAM   BANK0   BANK1   BANK2   BANK3   BANK4   BANK5   BANK6   BANK7   BANK8   BANK9  BANK10  BANK1
      +1  BANK12  BANK13  BANK14  BANK15
  1384 ;;      Params:         4       0       0       0       0       0       0       0       0       0       0       0       
      +0       0       0       0       0
  1385 ;;      Locals:         3       0       0       0       0       0       0       0       0       0       0       0       
      +0       0       0       0       0
  1386 ;;      Temps:          0       0       0       0       0       0       0       0       0       0       0       0       
      +0       0       0       0       0
  1387 ;;      Totals:         7       0       0       0       0       0       0       0       0       0       0       0       
      +0       0       0       0       0
  1388 ;;Total ram usage:        7 bytes
  1389 ;; Hardware stack levels used:    1
  1390 ;; This function calls:
  1391 ;;		Nothing
  1392 ;; This function is called by:
  1393 ;;		_printf
  1394 ;; This function uses a non-reentrant model
  1395 ;;
  1396                           
  1397                           	psect	text4
  1398  001C24                     __ptext4:
  1399                           	opt stack 0
  1400  001C24                     ___lwdiv:
  1401                           	opt stack 29
  1402                           
  1403                           ;incstack = 0
  1404  001C24  0E00               	movlw	0
  1405  001C26  6E06               	movwf	___lwdiv@quotient+1,c
  1406  001C28  0E00               	movlw	0
  1407  001C2A  6E05               	movwf	___lwdiv@quotient,c
  1408  001C2C  5003               	movf	___lwdiv@divisor,w,c
  1409  001C2E  1004               	iorwf	___lwdiv@divisor+1,w,c
  1410  001C30  B4D8               	btfsc	status,2,c
  1411  001C32  D021               	goto	l767
  1412  001C34  0E01               	movlw	1
  1413  001C36  6E07               	movwf	___lwdiv@counter,c
  1414  001C38  D005               	goto	l1654
  1415  001C3A                     l1652:
  1416  001C3A  90D8               	bcf	status,0,c
  1417  001C3C  3603               	rlcf	___lwdiv@divisor,f,c
  1418  001C3E  3604               	rlcf	___lwdiv@divisor+1,f,c
  1419  001C40  2A07               	incf	___lwdiv@counter,f,c
  1420  001C42  D000               	goto	l1654
  1421  001C44                     l1654:
  1422  001C44  BE04               	btfsc	___lwdiv@divisor+1,7,c
  1423  001C46  D002               	goto	l1656
  1424  001C48  D7F8               	goto	l1652
  1425  001C4A  D000               	goto	l1656
  1426  001C4C                     l1656:
  1427  001C4C  90D8               	bcf	status,0,c
  1428  001C4E  3605               	rlcf	___lwdiv@quotient,f,c
  1429  001C50  3606               	rlcf	___lwdiv@quotient+1,f,c
  1430  001C52  5003               	movf	___lwdiv@divisor,w,c
  1431  001C54  5C01               	subwf	___lwdiv@dividend,w,c
  1432  001C56  5004               	movf	___lwdiv@divisor+1,w,c
  1433  001C58  5802               	subwfb	___lwdiv@dividend+1,w,c
  1434  001C5A  A0D8               	btfss	status,0,c
  1435  001C5C  D006               	goto	l1664
  1436  001C5E  5003               	movf	___lwdiv@divisor,w,c
  1437  001C60  5E01               	subwf	___lwdiv@dividend,f,c
  1438  001C62  5004               	movf	___lwdiv@divisor+1,w,c
  1439  001C64  5A02               	subwfb	___lwdiv@dividend+1,f,c
  1440  001C66  8005               	bsf	___lwdiv@quotient,0,c
  1441  001C68  D000               	goto	l1664
  1442  001C6A                     l1664:
  1443  001C6A  90D8               	bcf	status,0,c
  1444  001C6C  3204               	rrcf	___lwdiv@divisor+1,f,c
  1445  001C6E  3203               	rrcf	___lwdiv@divisor,f,c
  1446  001C70  2E07               	decfsz	___lwdiv@counter,f,c
  1447  001C72  D7EC               	goto	l1656
  1448  001C74  D000               	goto	l767
  1449  001C76                     l767:
  1450  001C76  C005  F001         	movff	___lwdiv@quotient,?___lwdiv
  1451  001C7A  C006  F002         	movff	___lwdiv@quotient+1,?___lwdiv+1
  1452  001C7E  0012               	return		;funcret
  1453  001C80                     __end_of___lwdiv:
  1454                           	opt stack 0
  1455                           tblptru	equ	0xFF8
  1456                           tblptrh	equ	0xFF7
  1457                           tblptrl	equ	0xFF6
  1458                           tablat	equ	0xFF5
  1459                           prodh	equ	0xFF4
  1460                           prodl	equ	0xFF3
  1461                           postinc0	equ	0xFEE
  1462                           postdec1	equ	0xFE5
  1463                           fsr1l	equ	0xFE1
  1464                           indf2	equ	0xFDF
  1465                           postinc2	equ	0xFDE
  1466                           postdec2	equ	0xFDD
  1467                           fsr2h	equ	0xFDA
  1468                           fsr2l	equ	0xFD9
  1469                           status	equ	0xFD8
  1470                           
  1471 ;; *************** function _get_full_ADC *****************
  1472 ;; Defined at:
  1473 ;;		line 228 in file "lab5p1.c"
  1474 ;; Parameters:    Size  Location     Type
  1475 ;;		None
  1476 ;; Auto vars:     Size  Location     Type
  1477 ;;  result          2    4[COMRAM] int 
  1478 ;; Return value:  Size  Location     Type
  1479 ;;                  2    0[COMRAM] unsigned int 
  1480 ;; Registers used:
  1481 ;;		wreg, status,2, status,0
  1482 ;; Tracked objects:
  1483 ;;		On entry : 0/0
  1484 ;;		On exit  : 0/0
  1485 ;;		Unchanged: 0/0
  1486 ;; Data sizes:     COMRAM   BANK0   BANK1   BANK2   BANK3   BANK4   BANK5   BANK6   BANK7   BANK8   BANK9  BANK10  BANK1
      +1  BANK12  BANK13  BANK14  BANK15
  1487 ;;      Params:         2       0       0       0       0       0       0       0       0       0       0       0       
      +0       0       0       0       0
  1488 ;;      Locals:         2       0       0       0       0       0       0       0       0       0       0       0       
      +0       0       0       0       0
  1489 ;;      Temps:          2       0       0       0       0       0       0       0       0       0       0       0       
      +0       0       0       0       0
  1490 ;;      Totals:         6       0       0       0       0       0       0       0       0       0       0       0       
      +0       0       0       0       0
  1491 ;;Total ram usage:        6 bytes
  1492 ;; Hardware stack levels used:    1
  1493 ;; This function calls:
  1494 ;;		Nothing
  1495 ;; This function is called by:
  1496 ;;		_main
  1497 ;; This function uses a non-reentrant model
  1498 ;;
  1499                           
  1500                           	psect	text5
  1501  001D72                     __ptext5:
  1502                           	opt stack 0
  1503  001D72                     _get_full_ADC:
  1504                           	opt stack 30
  1505                           
  1506                           ;lab5p1.c: 230: int result;
  1507                           ;lab5p1.c: 231: ADCON0bits.GO=1;
  1508                           
  1509                           ;incstack = 0
  1510  001D72  82C2               	bsf	4034,1,c	;volatile
  1511                           
  1512                           ;lab5p1.c: 232: while(ADCON0bits.DONE==1);
  1513  001D74  D000               	goto	l137
  1514  001D76                     l137:
  1515  001D76  B2C2               	btfsc	4034,1,c	;volatile
  1516  001D78  D7FE               	goto	l137
  1517                           
  1518                           ;lab5p1.c: 233: result = (ADRESH * 0x100) + ADRESL;
  1519  001D7A  50C4               	movf	4036,w,c	;volatile
  1520  001D7C  6E04               	movwf	(??_get_full_ADC+1)& (0+255),c
  1521  001D7E  6A03               	clrf	??_get_full_ADC& (0+255),c
  1522  001D80  50C3               	movf	4035,w,c	;volatile
  1523  001D82  2403               	addwf	??_get_full_ADC,w,c
  1524  001D84  6E05               	movwf	get_full_ADC@result,c
  1525  001D86  0E00               	movlw	0
  1526  001D88  2004               	addwfc	??_get_full_ADC+1,w,c
  1527  001D8A  6E06               	movwf	get_full_ADC@result+1,c
  1528                           
  1529                           ;lab5p1.c: 234: return result;
  1530  001D8C  C005  F001         	movff	get_full_ADC@result,?_get_full_ADC
  1531  001D90  C006  F002         	movff	get_full_ADC@result+1,?_get_full_ADC+1
  1532  001D94  D000               	goto	l140
  1533  001D96                     l140:
  1534  001D96  0012               	return		;funcret
  1535  001D98                     __end_of_get_full_ADC:
  1536                           	opt stack 0
  1537                           tblptru	equ	0xFF8
  1538                           tblptrh	equ	0xFF7
  1539                           tblptrl	equ	0xFF6
  1540                           tablat	equ	0xFF5
  1541                           prodh	equ	0xFF4
  1542                           prodl	equ	0xFF3
  1543                           postinc0	equ	0xFEE
  1544                           postdec1	equ	0xFE5
  1545                           fsr1l	equ	0xFE1
  1546                           indf2	equ	0xFDF
  1547                           postinc2	equ	0xFDE
  1548                           postdec2	equ	0xFDD
  1549                           fsr2h	equ	0xFDA
  1550                           fsr2l	equ	0xFD9
  1551                           status	equ	0xFD8
  1552                           
  1553 ;; *************** function ___fttol *****************
  1554 ;; Defined at:
  1555 ;;		line 44 in file "D:\Program Files (x86)\Microchip\xc8\v1.34\sources\common\fttol.c"
  1556 ;; Parameters:    Size  Location     Type
  1557 ;;  f1              3    0[COMRAM] float 
  1558 ;; Auto vars:     Size  Location     Type
  1559 ;;  lval            4   10[COMRAM] unsigned long 
  1560 ;;  exp1            1   14[COMRAM] unsigned char 
  1561 ;;  sign1           1    9[COMRAM] unsigned char 
  1562 ;; Return value:  Size  Location     Type
  1563 ;;                  4    0[COMRAM] long 
  1564 ;; Registers used:
  1565 ;;		wreg, status,2, status,0
  1566 ;; Tracked objects:
  1567 ;;		On entry : 0/0
  1568 ;;		On exit  : 0/0
  1569 ;;		Unchanged: 0/0
  1570 ;; Data sizes:     COMRAM   BANK0   BANK1   BANK2   BANK3   BANK4   BANK5   BANK6   BANK7   BANK8   BANK9  BANK10  BANK1
      +1  BANK12  BANK13  BANK14  BANK15
  1571 ;;      Params:         4       0       0       0       0       0       0       0       0       0       0       0       
      +0       0       0       0       0
  1572 ;;      Locals:         6       0       0       0       0       0       0       0       0       0       0       0       
      +0       0       0       0       0
  1573 ;;      Temps:          5       0       0       0       0       0       0       0       0       0       0       0       
      +0       0       0       0       0
  1574 ;;      Totals:        15       0       0       0       0       0       0       0       0       0       0       0       
      +0       0       0       0       0
  1575 ;;Total ram usage:       15 bytes
  1576 ;; Hardware stack levels used:    1
  1577 ;; This function calls:
  1578 ;;		Nothing
  1579 ;; This function is called by:
  1580 ;;		_main
  1581 ;; This function uses a non-reentrant model
  1582 ;;
  1583                           
  1584                           	psect	text6
  1585  00177E                     __ptext6:
  1586                           	opt stack 0
  1587  00177E                     ___fttol:
  1588                           	opt stack 30
  1589                           
  1590                           ;incstack = 0
  1591  00177E  C003  F005         	movff	___fttol@f1+2,??___fttol
  1592  001782  6A06               	clrf	(??___fttol+1)& (0+255),c
  1593  001784  6A07               	clrf	(??___fttol+2)& (0+255),c
  1594  001786  3402               	rlcf	___fttol@f1+1,w,c
  1595  001788  3605               	rlcf	??___fttol& (0+255),f,c
  1596  00178A  E301               	bnc	u2121
  1597  00178C  8006               	bsf	(??___fttol+1)& (0+255),0,c
  1598  00178E                     u2121:
  1599  00178E  5005               	movf	??___fttol,w,c
  1600  001790  6E0F               	movwf	___fttol@exp1,c
  1601  001792  500F               	movf	___fttol@exp1,w,c
  1602  001794  A4D8               	btfss	status,2,c
  1603  001796  D002               	goto	l2042
  1604  001798  D039               	goto	l2066
  1605  00179A  D063               	goto	l665
  1606  00179C                     l2042:
  1607  00179C  0E17               	movlw	23
  1608  00179E  6E05               	movwf	??___fttol& (0+255),c
  1609  0017A0  C001  F006         	movff	___fttol@f1,??___fttol+1
  1610  0017A4  C002  F007         	movff	___fttol@f1+1,??___fttol+2
  1611  0017A8  C003  F008         	movff	___fttol@f1+2,??___fttol+3
  1612  0017AC  2805               	incf	??___fttol,w,c
  1613  0017AE  6E09               	movwf	(??___fttol+4)& (0+255),c
  1614  0017B0  D004               	goto	u2140
  1615  0017B2                     u2145:
  1616  0017B2  90D8               	bcf	status,0,c
  1617  0017B4  3208               	rrcf	??___fttol+3,f,c
  1618  0017B6  3207               	rrcf	??___fttol+2,f,c
  1619  0017B8  3206               	rrcf	??___fttol+1,f,c
  1620  0017BA                     u2140:
  1621  0017BA  2E09               	decfsz	(??___fttol+4)& (0+255),f,c
  1622  0017BC  D7FA               	goto	u2145
  1623  0017BE  5006               	movf	??___fttol+1,w,c
  1624  0017C0  6E0A               	movwf	___fttol@sign1,c
  1625  0017C2  8E02               	bsf	___fttol@f1+1,7,c
  1626  0017C4  0EFF               	movlw	255
  1627  0017C6  1601               	andwf	___fttol@f1,f,c
  1628  0017C8  0EFF               	movlw	255
  1629  0017CA  1602               	andwf	___fttol@f1+1,f,c
  1630  0017CC  0E00               	movlw	0
  1631  0017CE  1603               	andwf	___fttol@f1+2,f,c
  1632  0017D0  5001               	movf	___fttol@f1,w,c
  1633  0017D2  6E0B               	movwf	___fttol@lval,c
  1634  0017D4  5002               	movf	___fttol@f1+1,w,c
  1635  0017D6  6E0C               	movwf	___fttol@lval+1,c
  1636  0017D8  5003               	movf	___fttol@f1+2,w,c
  1637  0017DA  6E0D               	movwf	___fttol@lval+2,c
  1638  0017DC  6A0E               	clrf	___fttol@lval+3,c
  1639  0017DE  0E8E               	movlw	142
  1640  0017E0  5E0F               	subwf	___fttol@exp1,f,c
  1641  0017E2  AE0F               	btfss	___fttol@exp1,7,c
  1642  0017E4  D010               	goto	l2064
  1643  0017E6  500F               	movf	___fttol@exp1,w,c
  1644  0017E8  0A80               	xorlw	128
  1645  0017EA  0F8F               	addlw	143
  1646  0017EC  B0D8               	btfsc	status,0,c
  1647  0017EE  D003               	goto	l2060
  1648  0017F0  D00D               	goto	l2066
  1649  0017F2  D037               	goto	l665
  1650  0017F4  D000               	goto	l2060
  1651  0017F6                     l2060:
  1652  0017F6  90D8               	bcf	status,0,c
  1653  0017F8  320E               	rrcf	___fttol@lval+3,f,c
  1654  0017FA  320D               	rrcf	___fttol@lval+2,f,c
  1655  0017FC  320C               	rrcf	___fttol@lval+1,f,c
  1656  0017FE  320B               	rrcf	___fttol@lval,f,c
  1657  001800  3E0F               	incfsz	___fttol@exp1,f,c
  1658  001802  D7F9               	goto	l2060
  1659  001804  D019               	goto	l2074
  1660  001806                     l2064:
  1661  001806  0E17               	movlw	23
  1662  001808  640F               	cpfsgt	___fttol@exp1,c
  1663  00180A  D011               	goto	l2072
  1664  00180C                     l2066:
  1665  00180C  0E00               	movlw	0
  1666  00180E  6E01               	movwf	?___fttol,c
  1667  001810  0E00               	movlw	0
  1668  001812  6E02               	movwf	?___fttol+1,c
  1669  001814  0E00               	movlw	0
  1670  001816  6E03               	movwf	?___fttol+2,c
  1671  001818  0E00               	movlw	0
  1672  00181A  6E04               	movwf	?___fttol+3,c
  1673  00181C  D022               	goto	l665
  1674  00181E  D007               	goto	l2072
  1675  001820                     l2070:
  1676  001820  90D8               	bcf	status,0,c
  1677  001822  360B               	rlcf	___fttol@lval,f,c
  1678  001824  360C               	rlcf	___fttol@lval+1,f,c
  1679  001826  360D               	rlcf	___fttol@lval+2,f,c
  1680  001828  360E               	rlcf	___fttol@lval+3,f,c
  1681  00182A  060F               	decf	___fttol@exp1,f,c
  1682  00182C  D000               	goto	l2072
  1683  00182E                     l2072:
  1684  00182E  500F               	movf	___fttol@exp1,w,c
  1685  001830  B4D8               	btfsc	status,2,c
  1686  001832  D002               	goto	l2074
  1687  001834  D7F5               	goto	l2070
  1688  001836  D000               	goto	l2074
  1689  001838                     l2074:
  1690  001838  500A               	movf	___fttol@sign1,w,c
  1691  00183A  B4D8               	btfsc	status,2,c
  1692  00183C  D009               	goto	l2078
  1693  00183E  1E0E               	comf	___fttol@lval+3,f,c
  1694  001840  1E0D               	comf	___fttol@lval+2,f,c
  1695  001842  1E0C               	comf	___fttol@lval+1,f,c
  1696  001844  6C0B               	negf	___fttol@lval,c
  1697  001846  0E00               	movlw	0
  1698  001848  220C               	addwfc	___fttol@lval+1,f,c
  1699  00184A  220D               	addwfc	___fttol@lval+2,f,c
  1700  00184C  220E               	addwfc	___fttol@lval+3,f,c
  1701  00184E  D000               	goto	l2078
  1702  001850                     l2078:
  1703  001850  C00B  F001         	movff	___fttol@lval,?___fttol
  1704  001854  C00C  F002         	movff	___fttol@lval+1,?___fttol+1
  1705  001858  C00D  F003         	movff	___fttol@lval+2,?___fttol+2
  1706  00185C  C00E  F004         	movff	___fttol@lval+3,?___fttol+3
  1707  001860  D000               	goto	l665
  1708  001862                     l665:
  1709  001862  0012               	return		;funcret
  1710  001864                     __end_of___fttol:
  1711                           	opt stack 0
  1712                           tblptru	equ	0xFF8
  1713                           tblptrh	equ	0xFF7
  1714                           tblptrl	equ	0xFF6
  1715                           tablat	equ	0xFF5
  1716                           prodh	equ	0xFF4
  1717                           prodl	equ	0xFF3
  1718                           postinc0	equ	0xFEE
  1719                           postdec1	equ	0xFE5
  1720                           fsr1l	equ	0xFE1
  1721                           indf2	equ	0xFDF
  1722                           postinc2	equ	0xFDE
  1723                           postdec2	equ	0xFDD
  1724                           fsr2h	equ	0xFDA
  1725                           fsr2l	equ	0xFD9
  1726                           status	equ	0xFD8
  1727                           
  1728 ;; *************** function ___ftneg *****************
  1729 ;; Defined at:
  1730 ;;		line 15 in file "D:\Program Files (x86)\Microchip\xc8\v1.34\sources\common\ftneg.c"
  1731 ;; Parameters:    Size  Location     Type
  1732 ;;  f1              3    0[COMRAM] float 
  1733 ;; Auto vars:     Size  Location     Type
  1734 ;;		None
  1735 ;; Return value:  Size  Location     Type
  1736 ;;                  3    0[COMRAM] float 
  1737 ;; Registers used:
  1738 ;;		wreg, status,2, status,0
  1739 ;; Tracked objects:
  1740 ;;		On entry : 0/0
  1741 ;;		On exit  : 0/0
  1742 ;;		Unchanged: 0/0
  1743 ;; Data sizes:     COMRAM   BANK0   BANK1   BANK2   BANK3   BANK4   BANK5   BANK6   BANK7   BANK8   BANK9  BANK10  BANK1
      +1  BANK12  BANK13  BANK14  BANK15
  1744 ;;      Params:         3       0       0       0       0       0       0       0       0       0       0       0       
      +0       0       0       0       0
  1745 ;;      Locals:         0       0       0       0       0       0       0       0       0       0       0       0       
      +0       0       0       0       0
  1746 ;;      Temps:          0       0       0       0       0       0       0       0       0       0       0       0       
      +0       0       0       0       0
  1747 ;;      Totals:         3       0       0       0       0       0       0       0       0       0       0       0       
      +0       0       0       0       0
  1748 ;;Total ram usage:        3 bytes
  1749 ;; Hardware stack levels used:    1
  1750 ;; This function calls:
  1751 ;;		Nothing
  1752 ;; This function is called by:
  1753 ;;		_main
  1754 ;; This function uses a non-reentrant model
  1755 ;;
  1756                           
  1757                           	psect	text7
  1758  001D98                     __ptext7:
  1759                           	opt stack 0
  1760  001D98                     ___ftneg:
  1761                           	opt stack 30
  1762                           
  1763                           ;incstack = 0
  1764  001D98  5001               	movf	___ftneg@f1,w,c
  1765  001D9A  1002               	iorwf	___ftneg@f1+1,w,c
  1766  001D9C  1003               	iorwf	___ftneg@f1+2,w,c
  1767  001D9E  B4D8               	btfsc	status,2,c
  1768  001DA0  D006               	goto	l654
  1769  001DA2  0E00               	movlw	0
  1770  001DA4  1A01               	xorwf	___ftneg@f1,f,c
  1771  001DA6  0E00               	movlw	0
  1772  001DA8  1A02               	xorwf	___ftneg@f1+1,f,c
  1773  001DAA  0E80               	movlw	128
  1774  001DAC  1A03               	xorwf	___ftneg@f1+2,f,c
  1775  001DAE                     l654:
  1776  001DAE  C001  F001         	movff	___ftneg@f1,?___ftneg
  1777  001DB2  C002  F002         	movff	___ftneg@f1+1,?___ftneg+1
  1778  001DB6  C003  F003         	movff	___ftneg@f1+2,?___ftneg+2
  1779  001DBA  0012               	return		;funcret
  1780  001DBC                     __end_of___ftneg:
  1781                           	opt stack 0
  1782                           tblptru	equ	0xFF8
  1783                           tblptrh	equ	0xFF7
  1784                           tblptrl	equ	0xFF6
  1785                           tablat	equ	0xFF5
  1786                           prodh	equ	0xFF4
  1787                           prodl	equ	0xFF3
  1788                           postinc0	equ	0xFEE
  1789                           postdec1	equ	0xFE5
  1790                           fsr1l	equ	0xFE1
  1791                           indf2	equ	0xFDF
  1792                           postinc2	equ	0xFDE
  1793                           postdec2	equ	0xFDD
  1794                           fsr2h	equ	0xFDA
  1795                           fsr2l	equ	0xFD9
  1796                           status	equ	0xFD8
  1797                           
  1798 ;; *************** function ___ftmul *****************
  1799 ;; Defined at:
  1800 ;;		line 62 in file "D:\Program Files (x86)\Microchip\xc8\v1.34\sources\common\ftmul.c"
  1801 ;; Parameters:    Size  Location     Type
  1802 ;;  f1              3   12[COMRAM] float 
  1803 ;;  f2              3   15[COMRAM] float 
  1804 ;; Auto vars:     Size  Location     Type
  1805 ;;  f3_as_produc    3   22[COMRAM] unsigned um
  1806 ;;  sign            1   26[COMRAM] unsigned char 
  1807 ;;  cntr            1   25[COMRAM] unsigned char 
  1808 ;;  exp             1   21[COMRAM] unsigned char 
  1809 ;; Return value:  Size  Location     Type
  1810 ;;                  3   12[COMRAM] float 
  1811 ;; Registers used:
  1812 ;;		wreg, status,2, status,0, cstack
  1813 ;; Tracked objects:
  1814 ;;		On entry : 0/0
  1815 ;;		On exit  : 0/0
  1816 ;;		Unchanged: 0/0
  1817 ;; Data sizes:     COMRAM   BANK0   BANK1   BANK2   BANK3   BANK4   BANK5   BANK6   BANK7   BANK8   BANK9  BANK10  BANK1
      +1  BANK12  BANK13  BANK14  BANK15
  1818 ;;      Params:         6       0       0       0       0       0       0       0       0       0       0       0       
      +0       0       0       0       0
  1819 ;;      Locals:         6       0       0       0       0       0       0       0       0       0       0       0       
      +0       0       0       0       0
  1820 ;;      Temps:          3       0       0       0       0       0       0       0       0       0       0       0       
      +0       0       0       0       0
  1821 ;;      Totals:        15       0       0       0       0       0       0       0       0       0       0       0       
      +0       0       0       0       0
  1822 ;;Total ram usage:       15 bytes
  1823 ;; Hardware stack levels used:    1
  1824 ;; Hardware stack levels required when called:    1
  1825 ;; This function calls:
  1826 ;;		___ftpack
  1827 ;; This function is called by:
  1828 ;;		_main
  1829 ;; This function uses a non-reentrant model
  1830 ;;
  1831                           
  1832                           	psect	text8
  1833  001686                     __ptext8:
  1834                           	opt stack 0
  1835  001686                     ___ftmul:
  1836                           	opt stack 29
  1837                           
  1838                           ;incstack = 0
  1839  001686  C00F  F013         	movff	___ftmul@f1+2,??___ftmul
  1840  00168A  6A14               	clrf	(??___ftmul+1)& (0+255),c
  1841  00168C  6A15               	clrf	(??___ftmul+2)& (0+255),c
  1842  00168E  340E               	rlcf	___ftmul@f1+1,w,c
  1843  001690  3613               	rlcf	??___ftmul& (0+255),f,c
  1844  001692  E301               	bnc	u1981
  1845  001694  8014               	bsf	(??___ftmul+1)& (0+255),0,c
  1846  001696                     u1981:
  1847  001696  5013               	movf	??___ftmul,w,c
  1848  001698  6E16               	movwf	___ftmul@exp,c
  1849  00169A  5016               	movf	___ftmul@exp,w,c
  1850  00169C  A4D8               	btfss	status,2,c
  1851  00169E  D002               	goto	l1942
  1852  0016A0  D00E               	goto	l1944
  1853  0016A2  D06C               	goto	l644
  1854  0016A4                     l1942:
  1855  0016A4  C012  F013         	movff	___ftmul@f2+2,??___ftmul
  1856  0016A8  6A14               	clrf	(??___ftmul+1)& (0+255),c
  1857  0016AA  6A15               	clrf	(??___ftmul+2)& (0+255),c
  1858  0016AC  3411               	rlcf	___ftmul@f2+1,w,c
  1859  0016AE  3613               	rlcf	??___ftmul& (0+255),f,c
  1860  0016B0  E301               	bnc	u2001
  1861  0016B2  8014               	bsf	(??___ftmul+1)& (0+255),0,c
  1862  0016B4                     u2001:
  1863  0016B4  5013               	movf	??___ftmul,w,c
  1864  0016B6  6E1B               	movwf	___ftmul@sign,c
  1865  0016B8  501B               	movf	___ftmul@sign,w,c
  1866  0016BA  A4D8               	btfss	status,2,c
  1867  0016BC  D007               	goto	l1948
  1868  0016BE                     l1944:
  1869  0016BE  0E00               	movlw	0
  1870  0016C0  6E0D               	movwf	?___ftmul,c
  1871  0016C2  0E00               	movlw	0
  1872  0016C4  6E0E               	movwf	?___ftmul+1,c
  1873  0016C6  0E00               	movlw	0
  1874  0016C8  6E0F               	movwf	?___ftmul+2,c
  1875  0016CA  D058               	goto	l644
  1876  0016CC                     l1948:
  1877  0016CC  501B               	movf	___ftmul@sign,w,c
  1878  0016CE  0F7B               	addlw	123
  1879  0016D0  2616               	addwf	___ftmul@exp,f,c
  1880  0016D2  C00F  F01B         	movff	___ftmul@f1+2,___ftmul@sign
  1881  0016D6  5012               	movf	___ftmul@f2+2,w,c
  1882  0016D8  1A1B               	xorwf	___ftmul@sign,f,c
  1883  0016DA  0E80               	movlw	128
  1884  0016DC  161B               	andwf	___ftmul@sign,f,c
  1885  0016DE  8E0E               	bsf	___ftmul@f1+1,7,c
  1886  0016E0  8E11               	bsf	___ftmul@f2+1,7,c
  1887  0016E2  0EFF               	movlw	255
  1888  0016E4  1610               	andwf	___ftmul@f2,f,c
  1889  0016E6  0EFF               	movlw	255
  1890  0016E8  1611               	andwf	___ftmul@f2+1,f,c
  1891  0016EA  0E00               	movlw	0
  1892  0016EC  1612               	andwf	___ftmul@f2+2,f,c
  1893  0016EE  0E00               	movlw	0
  1894  0016F0  6E17               	movwf	___ftmul@f3_as_product,c
  1895  0016F2  0E00               	movlw	0
  1896  0016F4  6E18               	movwf	___ftmul@f3_as_product+1,c
  1897  0016F6  0E00               	movlw	0
  1898  0016F8  6E19               	movwf	___ftmul@f3_as_product+2,c
  1899  0016FA  0E07               	movlw	7
  1900  0016FC  6E1A               	movwf	___ftmul@cntr,c
  1901  0016FE  D000               	goto	l1962
  1902  001700                     l1962:
  1903  001700  A00D               	btfss	___ftmul@f1,0,c
  1904  001702  D007               	goto	l1966
  1905  001704  5010               	movf	___ftmul@f2,w,c
  1906  001706  2617               	addwf	___ftmul@f3_as_product,f,c
  1907  001708  5011               	movf	___ftmul@f2+1,w,c
  1908  00170A  2218               	addwfc	___ftmul@f3_as_product+1,f,c
  1909  00170C  5012               	movf	___ftmul@f2+2,w,c
  1910  00170E  2219               	addwfc	___ftmul@f3_as_product+2,f,c
  1911  001710  D000               	goto	l1966
  1912  001712                     l1966:
  1913  001712  90D8               	bcf	status,0,c
  1914  001714  320F               	rrcf	___ftmul@f1+2,f,c
  1915  001716  320E               	rrcf	___ftmul@f1+1,f,c
  1916  001718  320D               	rrcf	___ftmul@f1,f,c
  1917  00171A  90D8               	bcf	status,0,c
  1918  00171C  3610               	rlcf	___ftmul@f2,f,c
  1919  00171E  3611               	rlcf	___ftmul@f2+1,f,c
  1920  001720  3612               	rlcf	___ftmul@f2+2,f,c
  1921  001722  2E1A               	decfsz	___ftmul@cntr,f,c
  1922  001724  D7ED               	goto	l1962
  1923  001726  D000               	goto	l1970
  1924  001728                     l1970:
  1925  001728  0E09               	movlw	9
  1926  00172A  6E1A               	movwf	___ftmul@cntr,c
  1927  00172C  D000               	goto	l1972
  1928  00172E                     l1972:
  1929  00172E  A00D               	btfss	___ftmul@f1,0,c
  1930  001730  D007               	goto	l1976
  1931  001732  5010               	movf	___ftmul@f2,w,c
  1932  001734  2617               	addwf	___ftmul@f3_as_product,f,c
  1933  001736  5011               	movf	___ftmul@f2+1,w,c
  1934  001738  2218               	addwfc	___ftmul@f3_as_product+1,f,c
  1935  00173A  5012               	movf	___ftmul@f2+2,w,c
  1936  00173C  2219               	addwfc	___ftmul@f3_as_product+2,f,c
  1937  00173E  D000               	goto	l1976
  1938  001740                     l1976:
  1939  001740  90D8               	bcf	status,0,c
  1940  001742  320F               	rrcf	___ftmul@f1+2,f,c
  1941  001744  320E               	rrcf	___ftmul@f1+1,f,c
  1942  001746  320D               	rrcf	___ftmul@f1,f,c
  1943  001748  90D8               	bcf	status,0,c
  1944  00174A  3219               	rrcf	___ftmul@f3_as_product+2,f,c
  1945  00174C  3218               	rrcf	___ftmul@f3_as_product+1,f,c
  1946  00174E  3217               	rrcf	___ftmul@f3_as_product,f,c
  1947  001750  2E1A               	decfsz	___ftmul@cntr,f,c
  1948  001752  D7ED               	goto	l1972
  1949  001754  D000               	goto	l1980
  1950  001756                     l1980:
  1951  001756  C017  F001         	movff	___ftmul@f3_as_product,___ftpack@arg
  1952  00175A  C018  F002         	movff	___ftmul@f3_as_product+1,___ftpack@arg+1
  1953  00175E  C019  F003         	movff	___ftmul@f3_as_product+2,___ftpack@arg+2
  1954  001762  C016  F004         	movff	___ftmul@exp,___ftpack@exp
  1955  001766  C01B  F005         	movff	___ftmul@sign,___ftpack@sign
  1956  00176A  ECA3  F00C         	call	___ftpack	;wreg free
  1957  00176E  C001  F00D         	movff	?___ftpack,?___ftmul
  1958  001772  C002  F00E         	movff	?___ftpack+1,?___ftmul+1
  1959  001776  C003  F00F         	movff	?___ftpack+2,?___ftmul+2
  1960  00177A  D000               	goto	l644
  1961  00177C                     l644:
  1962  00177C  0012               	return		;funcret
  1963  00177E                     __end_of___ftmul:
  1964                           	opt stack 0
  1965                           tblptru	equ	0xFF8
  1966                           tblptrh	equ	0xFF7
  1967                           tblptrl	equ	0xFF6
  1968                           tablat	equ	0xFF5
  1969                           prodh	equ	0xFF4
  1970                           prodl	equ	0xFF3
  1971                           postinc0	equ	0xFEE
  1972                           postdec1	equ	0xFE5
  1973                           fsr1l	equ	0xFE1
  1974                           indf2	equ	0xFDF
  1975                           postinc2	equ	0xFDE
  1976                           postdec2	equ	0xFDD
  1977                           fsr2h	equ	0xFDA
  1978                           fsr2l	equ	0xFD9
  1979                           status	equ	0xFD8
  1980                           
  1981 ;; *************** function ___ftdiv *****************
  1982 ;; Defined at:
  1983 ;;		line 54 in file "D:\Program Files (x86)\Microchip\xc8\v1.34\sources\common\ftdiv.c"
  1984 ;; Parameters:    Size  Location     Type
  1985 ;;  f1              3   39[COMRAM] float 
  1986 ;;  f2              3   42[COMRAM] float 
  1987 ;; Auto vars:     Size  Location     Type
  1988 ;;  f3              3   49[COMRAM] float 
  1989 ;;  sign            1   53[COMRAM] unsigned char 
  1990 ;;  exp             1   52[COMRAM] unsigned char 
  1991 ;;  cntr            1   48[COMRAM] unsigned char 
  1992 ;; Return value:  Size  Location     Type
  1993 ;;                  3   39[COMRAM] float 
  1994 ;; Registers used:
  1995 ;;		wreg, status,2, status,0, cstack
  1996 ;; Tracked objects:
  1997 ;;		On entry : 0/0
  1998 ;;		On exit  : 0/0
  1999 ;;		Unchanged: 0/0
  2000 ;; Data sizes:     COMRAM   BANK0   BANK1   BANK2   BANK3   BANK4   BANK5   BANK6   BANK7   BANK8   BANK9  BANK10  BANK1
      +1  BANK12  BANK13  BANK14  BANK15
  2001 ;;      Params:         6       0       0       0       0       0       0       0       0       0       0       0       
      +0       0       0       0       0
  2002 ;;      Locals:         6       0       0       0       0       0       0       0       0       0       0       0       
      +0       0       0       0       0
  2003 ;;      Temps:          3       0       0       0       0       0       0       0       0       0       0       0       
      +0       0       0       0       0
  2004 ;;      Totals:        15       0       0       0       0       0       0       0       0       0       0       0       
      +0       0       0       0       0
  2005 ;;Total ram usage:       15 bytes
  2006 ;; Hardware stack levels used:    1
  2007 ;; Hardware stack levels required when called:    1
  2008 ;; This function calls:
  2009 ;;		___ftpack
  2010 ;; This function is called by:
  2011 ;;		_main
  2012 ;; This function uses a non-reentrant model
  2013 ;;
  2014                           
  2015                           	psect	text9
  2016  001864                     __ptext9:
  2017                           	opt stack 0
  2018  001864                     ___ftdiv:
  2019                           	opt stack 29
  2020                           
  2021                           ;incstack = 0
  2022  001864  C02A  F02E         	movff	___ftdiv@f1+2,??___ftdiv
  2023  001868  6A2F               	clrf	(??___ftdiv+1)& (0+255),c
  2024  00186A  6A30               	clrf	(??___ftdiv+2)& (0+255),c
  2025  00186C  3429               	rlcf	___ftdiv@f1+1,w,c
  2026  00186E  362E               	rlcf	??___ftdiv& (0+255),f,c
  2027  001870  E301               	bnc	u1931
  2028  001872  802F               	bsf	(??___ftdiv+1)& (0+255),0,c
  2029  001874                     u1931:
  2030  001874  502E               	movf	??___ftdiv,w,c
  2031  001876  6E35               	movwf	___ftdiv@exp,c
  2032  001878  5035               	movf	___ftdiv@exp,w,c
  2033  00187A  A4D8               	btfss	status,2,c
  2034  00187C  D002               	goto	l1896
  2035  00187E  D00E               	goto	l1898
  2036  001880  D061               	goto	l629
  2037  001882                     l1896:
  2038  001882  C02D  F02E         	movff	___ftdiv@f2+2,??___ftdiv
  2039  001886  6A2F               	clrf	(??___ftdiv+1)& (0+255),c
  2040  001888  6A30               	clrf	(??___ftdiv+2)& (0+255),c
  2041  00188A  342C               	rlcf	___ftdiv@f2+1,w,c
  2042  00188C  362E               	rlcf	??___ftdiv& (0+255),f,c
  2043  00188E  E301               	bnc	u1951
  2044  001890  802F               	bsf	(??___ftdiv+1)& (0+255),0,c
  2045  001892                     u1951:
  2046  001892  502E               	movf	??___ftdiv,w,c
  2047  001894  6E36               	movwf	___ftdiv@sign,c
  2048  001896  5036               	movf	___ftdiv@sign,w,c
  2049  001898  A4D8               	btfss	status,2,c
  2050  00189A  D007               	goto	l1902
  2051  00189C                     l1898:
  2052  00189C  0E00               	movlw	0
  2053  00189E  6E28               	movwf	?___ftdiv,c
  2054  0018A0  0E00               	movlw	0
  2055  0018A2  6E29               	movwf	?___ftdiv+1,c
  2056  0018A4  0E00               	movlw	0
  2057  0018A6  6E2A               	movwf	?___ftdiv+2,c
  2058  0018A8  D04D               	goto	l629
  2059  0018AA                     l1902:
  2060  0018AA  0E00               	movlw	0
  2061  0018AC  6E32               	movwf	___ftdiv@f3,c
  2062  0018AE  0E00               	movlw	0
  2063  0018B0  6E33               	movwf	___ftdiv@f3+1,c
  2064  0018B2  0E00               	movlw	0
  2065  0018B4  6E34               	movwf	___ftdiv@f3+2,c
  2066  0018B6  5036               	movf	___ftdiv@sign,w,c
  2067  0018B8  0F89               	addlw	137
  2068  0018BA  5E35               	subwf	___ftdiv@exp,f,c
  2069  0018BC  C02A  F036         	movff	___ftdiv@f1+2,___ftdiv@sign
  2070  0018C0  502D               	movf	___ftdiv@f2+2,w,c
  2071  0018C2  1A36               	xorwf	___ftdiv@sign,f,c
  2072  0018C4  0E80               	movlw	128
  2073  0018C6  1636               	andwf	___ftdiv@sign,f,c
  2074  0018C8  8E29               	bsf	___ftdiv@f1+1,7,c
  2075  0018CA  0EFF               	movlw	255
  2076  0018CC  1628               	andwf	___ftdiv@f1,f,c
  2077  0018CE  0EFF               	movlw	255
  2078  0018D0  1629               	andwf	___ftdiv@f1+1,f,c
  2079  0018D2  0E00               	movlw	0
  2080  0018D4  162A               	andwf	___ftdiv@f1+2,f,c
  2081  0018D6  8E2C               	bsf	___ftdiv@f2+1,7,c
  2082  0018D8  0EFF               	movlw	255
  2083  0018DA  162B               	andwf	___ftdiv@f2,f,c
  2084  0018DC  0EFF               	movlw	255
  2085  0018DE  162C               	andwf	___ftdiv@f2+1,f,c
  2086  0018E0  0E00               	movlw	0
  2087  0018E2  162D               	andwf	___ftdiv@f2+2,f,c
  2088  0018E4  0E18               	movlw	24
  2089  0018E6  6E31               	movwf	___ftdiv@cntr,c
  2090  0018E8  D000               	goto	l1922
  2091  0018EA                     l1922:
  2092  0018EA  90D8               	bcf	status,0,c
  2093  0018EC  3632               	rlcf	___ftdiv@f3,f,c
  2094  0018EE  3633               	rlcf	___ftdiv@f3+1,f,c
  2095  0018F0  3634               	rlcf	___ftdiv@f3+2,f,c
  2096  0018F2  502B               	movf	___ftdiv@f2,w,c
  2097  0018F4  5C28               	subwf	___ftdiv@f1,w,c
  2098  0018F6  502C               	movf	___ftdiv@f2+1,w,c
  2099  0018F8  5829               	subwfb	___ftdiv@f1+1,w,c
  2100  0018FA  502D               	movf	___ftdiv@f2+2,w,c
  2101  0018FC  582A               	subwfb	___ftdiv@f1+2,w,c
  2102  0018FE  A0D8               	btfss	status,0,c
  2103  001900  D007               	goto	l632
  2104  001902  502B               	movf	___ftdiv@f2,w,c
  2105  001904  5E28               	subwf	___ftdiv@f1,f,c
  2106  001906  502C               	movf	___ftdiv@f2+1,w,c
  2107  001908  5A29               	subwfb	___ftdiv@f1+1,f,c
  2108  00190A  502D               	movf	___ftdiv@f2+2,w,c
  2109  00190C  5A2A               	subwfb	___ftdiv@f1+2,f,c
  2110  00190E  8032               	bsf	___ftdiv@f3,0,c
  2111  001910                     l632:
  2112  001910  90D8               	bcf	status,0,c
  2113  001912  3628               	rlcf	___ftdiv@f1,f,c
  2114  001914  3629               	rlcf	___ftdiv@f1+1,f,c
  2115  001916  362A               	rlcf	___ftdiv@f1+2,f,c
  2116  001918  2E31               	decfsz	___ftdiv@cntr,f,c
  2117  00191A  D7E7               	goto	l1922
  2118  00191C  D000               	goto	l1932
  2119  00191E                     l1932:
  2120  00191E  C032  F001         	movff	___ftdiv@f3,___ftpack@arg
  2121  001922  C033  F002         	movff	___ftdiv@f3+1,___ftpack@arg+1
  2122  001926  C034  F003         	movff	___ftdiv@f3+2,___ftpack@arg+2
  2123  00192A  C035  F004         	movff	___ftdiv@exp,___ftpack@exp
  2124  00192E  C036  F005         	movff	___ftdiv@sign,___ftpack@sign
  2125  001932  ECA3  F00C         	call	___ftpack	;wreg free
  2126  001936  C001  F028         	movff	?___ftpack,?___ftdiv
  2127  00193A  C002  F029         	movff	?___ftpack+1,?___ftdiv+1
  2128  00193E  C003  F02A         	movff	?___ftpack+2,?___ftdiv+2
  2129  001942  D000               	goto	l629
  2130  001944                     l629:
  2131  001944  0012               	return		;funcret
  2132  001946                     __end_of___ftdiv:
  2133                           	opt stack 0
  2134                           tblptru	equ	0xFF8
  2135                           tblptrh	equ	0xFF7
  2136                           tblptrl	equ	0xFF6
  2137                           tablat	equ	0xFF5
  2138                           prodh	equ	0xFF4
  2139                           prodl	equ	0xFF3
  2140                           postinc0	equ	0xFEE
  2141                           postdec1	equ	0xFE5
  2142                           fsr1l	equ	0xFE1
  2143                           indf2	equ	0xFDF
  2144                           postinc2	equ	0xFDE
  2145                           postdec2	equ	0xFDD
  2146                           fsr2h	equ	0xFDA
  2147                           fsr2l	equ	0xFD9
  2148                           status	equ	0xFD8
  2149                           
  2150 ;; *************** function ___ftadd *****************
  2151 ;; Defined at:
  2152 ;;		line 86 in file "D:\Program Files (x86)\Microchip\xc8\v1.34\sources\common\ftadd.c"
  2153 ;; Parameters:    Size  Location     Type
  2154 ;;  f1              3   27[COMRAM] float 
  2155 ;;  f2              3   30[COMRAM] float 
  2156 ;; Auto vars:     Size  Location     Type
  2157 ;;  exp1            1   38[COMRAM] unsigned char 
  2158 ;;  exp2            1   37[COMRAM] unsigned char 
  2159 ;;  sign            1   36[COMRAM] unsigned char 
  2160 ;; Return value:  Size  Location     Type
  2161 ;;                  3   27[COMRAM] float 
  2162 ;; Registers used:
  2163 ;;		wreg, status,2, status,0, cstack
  2164 ;; Tracked objects:
  2165 ;;		On entry : 0/0
  2166 ;;		On exit  : 0/0
  2167 ;;		Unchanged: 0/0
  2168 ;; Data sizes:     COMRAM   BANK0   BANK1   BANK2   BANK3   BANK4   BANK5   BANK6   BANK7   BANK8   BANK9  BANK10  BANK1
      +1  BANK12  BANK13  BANK14  BANK15
  2169 ;;      Params:         6       0       0       0       0       0       0       0       0       0       0       0       
      +0       0       0       0       0
  2170 ;;      Locals:         3       0       0       0       0       0       0       0       0       0       0       0       
      +0       0       0       0       0
  2171 ;;      Temps:          3       0       0       0       0       0       0       0       0       0       0       0       
      +0       0       0       0       0
  2172 ;;      Totals:        12       0       0       0       0       0       0       0       0       0       0       0       
      +0       0       0       0       0
  2173 ;;Total ram usage:       12 bytes
  2174 ;; Hardware stack levels used:    1
  2175 ;; Hardware stack levels required when called:    1
  2176 ;; This function calls:
  2177 ;;		___ftpack
  2178 ;; This function is called by:
  2179 ;;		_main
  2180 ;; This function uses a non-reentrant model
  2181 ;;
  2182                           
  2183                           	psect	text10
  2184  001282                     __ptext10:
  2185                           	opt stack 0
  2186  001282                     ___ftadd:
  2187                           	opt stack 29
  2188                           
  2189                           ;incstack = 0
  2190  001282  C01E  F022         	movff	___ftadd@f1+2,??___ftadd
  2191  001286  6A23               	clrf	(??___ftadd+1)& (0+255),c
  2192  001288  6A24               	clrf	(??___ftadd+2)& (0+255),c
  2193  00128A  341D               	rlcf	___ftadd@f1+1,w,c
  2194  00128C  3622               	rlcf	??___ftadd& (0+255),f,c
  2195  00128E  E301               	bnc	u1721
  2196  001290  8023               	bsf	(??___ftadd+1)& (0+255),0,c
  2197  001292                     u1721:
  2198  001292  5022               	movf	??___ftadd,w,c
  2199  001294  6E27               	movwf	___ftadd@exp1,c
  2200  001296  C021  F022         	movff	___ftadd@f2+2,??___ftadd
  2201  00129A  6A23               	clrf	(??___ftadd+1)& (0+255),c
  2202  00129C  6A24               	clrf	(??___ftadd+2)& (0+255),c
  2203  00129E  3420               	rlcf	___ftadd@f2+1,w,c
  2204  0012A0  3622               	rlcf	??___ftadd& (0+255),f,c
  2205  0012A2  E301               	bnc	u1731
  2206  0012A4  8023               	bsf	(??___ftadd+1)& (0+255),0,c
  2207  0012A6                     u1731:
  2208  0012A6  5022               	movf	??___ftadd,w,c
  2209  0012A8  6E26               	movwf	___ftadd@exp2,c
  2210  0012AA  5027               	movf	___ftadd@exp1,w,c
  2211  0012AC  B4D8               	btfsc	status,2,c
  2212  0012AE  D00B               	goto	l597
  2213  0012B0  5026               	movf	___ftadd@exp2,w,c
  2214  0012B2  5C27               	subwf	___ftadd@exp1,w,c
  2215  0012B4  B0D8               	btfsc	status,0,c
  2216  0012B6  D00E               	goto	l1828
  2217  0012B8  5027               	movf	___ftadd@exp1,w,c
  2218  0012BA  0800               	sublw	0
  2219  0012BC  2426               	addwf	___ftadd@exp2,w,c
  2220  0012BE  6E22               	movwf	??___ftadd& (0+255),c
  2221  0012C0  0E18               	movlw	24
  2222  0012C2  6422               	cpfsgt	??___ftadd,c
  2223  0012C4  D007               	goto	l1828
  2224  0012C6                     l597:
  2225  0012C6  C01F  F01C         	movff	___ftadd@f2,?___ftadd
  2226  0012CA  C020  F01D         	movff	___ftadd@f2+1,?___ftadd+1
  2227  0012CE  C021  F01E         	movff	___ftadd@f2+2,?___ftadd+2
  2228  0012D2  D0B8               	goto	l598
  2229  0012D4                     l1828:
  2230  0012D4  5026               	movf	___ftadd@exp2,w,c
  2231  0012D6  B4D8               	btfsc	status,2,c
  2232  0012D8  D00B               	goto	l601
  2233  0012DA  5027               	movf	___ftadd@exp1,w,c
  2234  0012DC  5C26               	subwf	___ftadd@exp2,w,c
  2235  0012DE  B0D8               	btfsc	status,0,c
  2236  0012E0  D00E               	goto	l1834
  2237  0012E2  5026               	movf	___ftadd@exp2,w,c
  2238  0012E4  0800               	sublw	0
  2239  0012E6  2427               	addwf	___ftadd@exp1,w,c
  2240  0012E8  6E22               	movwf	??___ftadd& (0+255),c
  2241  0012EA  0E18               	movlw	24
  2242  0012EC  6422               	cpfsgt	??___ftadd,c
  2243  0012EE  D007               	goto	l1834
  2244  0012F0                     l601:
  2245  0012F0  C01C  F01C         	movff	___ftadd@f1,?___ftadd
  2246  0012F4  C01D  F01D         	movff	___ftadd@f1+1,?___ftadd+1
  2247  0012F8  C01E  F01E         	movff	___ftadd@f1+2,?___ftadd+2
  2248  0012FC  D0A3               	goto	l598
  2249  0012FE                     l1834:
  2250  0012FE  0E06               	movlw	6
  2251  001300  6E25               	movwf	___ftadd@sign,c
  2252  001302  AE1E               	btfss	___ftadd@f1+2,7,c
  2253  001304  D002               	goto	l1840
  2254  001306  8E25               	bsf	___ftadd@sign,7,c
  2255  001308  D000               	goto	l1840
  2256  00130A                     l1840:
  2257  00130A  BE21               	btfsc	___ftadd@f2+2,7,c
  2258  00130C  8C25               	bsf	___ftadd@sign,6,c
  2259  00130E  8E1D               	bsf	___ftadd@f1+1,7,c
  2260  001310  0EFF               	movlw	255
  2261  001312  161C               	andwf	___ftadd@f1,f,c
  2262  001314  0EFF               	movlw	255
  2263  001316  161D               	andwf	___ftadd@f1+1,f,c
  2264  001318  0E00               	movlw	0
  2265  00131A  161E               	andwf	___ftadd@f1+2,f,c
  2266  00131C  8E20               	bsf	___ftadd@f2+1,7,c
  2267  00131E  0EFF               	movlw	255
  2268  001320  161F               	andwf	___ftadd@f2,f,c
  2269  001322  0EFF               	movlw	255
  2270  001324  1620               	andwf	___ftadd@f2+1,f,c
  2271  001326  0E00               	movlw	0
  2272  001328  1621               	andwf	___ftadd@f2+2,f,c
  2273  00132A  5026               	movf	___ftadd@exp2,w,c
  2274  00132C  5C27               	subwf	___ftadd@exp1,w,c
  2275  00132E  B0D8               	btfsc	status,0,c
  2276  001330  D01E               	goto	l1860
  2277  001332                     l1850:
  2278  001332  90D8               	bcf	status,0,c
  2279  001334  361F               	rlcf	___ftadd@f2,f,c
  2280  001336  3620               	rlcf	___ftadd@f2+1,f,c
  2281  001338  3621               	rlcf	___ftadd@f2+2,f,c
  2282  00133A  0626               	decf	___ftadd@exp2,f,c
  2283  00133C  5027               	movf	___ftadd@exp1,w,c
  2284  00133E  1826               	xorwf	___ftadd@exp2,w,c
  2285  001340  B4D8               	btfsc	status,2,c
  2286  001342  D00F               	goto	l1858
  2287  001344  0625               	decf	___ftadd@sign,f,c
  2288  001346  C025  F022         	movff	___ftadd@sign,??___ftadd
  2289  00134A  0E07               	movlw	7
  2290  00134C  1622               	andwf	??___ftadd,f,c
  2291  00134E  B4D8               	btfsc	status,2,c
  2292  001350  D008               	goto	l1858
  2293  001352  D7EF               	goto	l1850
  2294  001354  D006               	goto	l1858
  2295  001356                     l1856:
  2296  001356  90D8               	bcf	status,0,c
  2297  001358  321E               	rrcf	___ftadd@f1+2,f,c
  2298  00135A  321D               	rrcf	___ftadd@f1+1,f,c
  2299  00135C  321C               	rrcf	___ftadd@f1,f,c
  2300  00135E  2A27               	incf	___ftadd@exp1,f,c
  2301  001360  D000               	goto	l1858
  2302  001362                     l1858:
  2303  001362  5026               	movf	___ftadd@exp2,w,c
  2304  001364  1827               	xorwf	___ftadd@exp1,w,c
  2305  001366  B4D8               	btfsc	status,2,c
  2306  001368  D024               	goto	l612
  2307  00136A  D7F5               	goto	l1856
  2308  00136C  D022               	goto	l612
  2309  00136E                     l1860:
  2310  00136E  5027               	movf	___ftadd@exp1,w,c
  2311  001370  5C26               	subwf	___ftadd@exp2,w,c
  2312  001372  B0D8               	btfsc	status,0,c
  2313  001374  D01E               	goto	l612
  2314  001376                     l1862:
  2315  001376  90D8               	bcf	status,0,c
  2316  001378  361C               	rlcf	___ftadd@f1,f,c
  2317  00137A  361D               	rlcf	___ftadd@f1+1,f,c
  2318  00137C  361E               	rlcf	___ftadd@f1+2,f,c
  2319  00137E  0627               	decf	___ftadd@exp1,f,c
  2320  001380  5027               	movf	___ftadd@exp1,w,c
  2321  001382  1826               	xorwf	___ftadd@exp2,w,c
  2322  001384  B4D8               	btfsc	status,2,c
  2323  001386  D00F               	goto	l1870
  2324  001388  0625               	decf	___ftadd@sign,f,c
  2325  00138A  C025  F022         	movff	___ftadd@sign,??___ftadd
  2326  00138E  0E07               	movlw	7
  2327  001390  1622               	andwf	??___ftadd,f,c
  2328  001392  B4D8               	btfsc	status,2,c
  2329  001394  D008               	goto	l1870
  2330  001396  D7EF               	goto	l1862
  2331  001398  D006               	goto	l1870
  2332  00139A                     l1868:
  2333  00139A  90D8               	bcf	status,0,c
  2334  00139C  3221               	rrcf	___ftadd@f2+2,f,c
  2335  00139E  3220               	rrcf	___ftadd@f2+1,f,c
  2336  0013A0  321F               	rrcf	___ftadd@f2,f,c
  2337  0013A2  2A26               	incf	___ftadd@exp2,f,c
  2338  0013A4  D000               	goto	l1870
  2339  0013A6                     l1870:
  2340  0013A6  5026               	movf	___ftadd@exp2,w,c
  2341  0013A8  1827               	xorwf	___ftadd@exp1,w,c
  2342  0013AA  B4D8               	btfsc	status,2,c
  2343  0013AC  D002               	goto	l612
  2344  0013AE  D7F5               	goto	l1868
  2345  0013B0  D000               	goto	l612
  2346  0013B2                     l612:
  2347  0013B2  AE25               	btfss	___ftadd@sign,7,c
  2348  0013B4  D00C               	goto	l621
  2349  0013B6  0EFF               	movlw	255
  2350  0013B8  1A1C               	xorwf	___ftadd@f1,f,c
  2351  0013BA  0EFF               	movlw	255
  2352  0013BC  1A1D               	xorwf	___ftadd@f1+1,f,c
  2353  0013BE  0EFF               	movlw	255
  2354  0013C0  1A1E               	xorwf	___ftadd@f1+2,f,c
  2355  0013C2  0E01               	movlw	1
  2356  0013C4  261C               	addwf	___ftadd@f1,f,c
  2357  0013C6  0E00               	movlw	0
  2358  0013C8  221D               	addwfc	___ftadd@f1+1,f,c
  2359  0013CA  0E00               	movlw	0
  2360  0013CC  221E               	addwfc	___ftadd@f1+2,f,c
  2361  0013CE                     l621:
  2362  0013CE  AC25               	btfss	___ftadd@sign,6,c
  2363  0013D0  D00D               	goto	l1876
  2364  0013D2  0EFF               	movlw	255
  2365  0013D4  1A1F               	xorwf	___ftadd@f2,f,c
  2366  0013D6  0EFF               	movlw	255
  2367  0013D8  1A20               	xorwf	___ftadd@f2+1,f,c
  2368  0013DA  0EFF               	movlw	255
  2369  0013DC  1A21               	xorwf	___ftadd@f2+2,f,c
  2370  0013DE  0E01               	movlw	1
  2371  0013E0  261F               	addwf	___ftadd@f2,f,c
  2372  0013E2  0E00               	movlw	0
  2373  0013E4  2220               	addwfc	___ftadd@f2+1,f,c
  2374  0013E6  0E00               	movlw	0
  2375  0013E8  2221               	addwfc	___ftadd@f2+2,f,c
  2376  0013EA  D000               	goto	l1876
  2377  0013EC                     l1876:
  2378  0013EC  0E00               	movlw	0
  2379  0013EE  6E25               	movwf	___ftadd@sign,c
  2380  0013F0  501C               	movf	___ftadd@f1,w,c
  2381  0013F2  261F               	addwf	___ftadd@f2,f,c
  2382  0013F4  501D               	movf	___ftadd@f1+1,w,c
  2383  0013F6  2220               	addwfc	___ftadd@f2+1,f,c
  2384  0013F8  501E               	movf	___ftadd@f1+2,w,c
  2385  0013FA  2221               	addwfc	___ftadd@f2+2,f,c
  2386  0013FC  AE21               	btfss	___ftadd@f2+2,7,c
  2387  0013FE  D00F               	goto	l1886
  2388  001400  0EFF               	movlw	255
  2389  001402  1A1F               	xorwf	___ftadd@f2,f,c
  2390  001404  0EFF               	movlw	255
  2391  001406  1A20               	xorwf	___ftadd@f2+1,f,c
  2392  001408  0EFF               	movlw	255
  2393  00140A  1A21               	xorwf	___ftadd@f2+2,f,c
  2394  00140C  0E01               	movlw	1
  2395  00140E  261F               	addwf	___ftadd@f2,f,c
  2396  001410  0E00               	movlw	0
  2397  001412  2220               	addwfc	___ftadd@f2+1,f,c
  2398  001414  0E00               	movlw	0
  2399  001416  2221               	addwfc	___ftadd@f2+2,f,c
  2400  001418  0E01               	movlw	1
  2401  00141A  6E25               	movwf	___ftadd@sign,c
  2402  00141C  D000               	goto	l1886
  2403  00141E                     l1886:
  2404  00141E  C01F  F001         	movff	___ftadd@f2,___ftpack@arg
  2405  001422  C020  F002         	movff	___ftadd@f2+1,___ftpack@arg+1
  2406  001426  C021  F003         	movff	___ftadd@f2+2,___ftpack@arg+2
  2407  00142A  C027  F004         	movff	___ftadd@exp1,___ftpack@exp
  2408  00142E  C025  F005         	movff	___ftadd@sign,___ftpack@sign
  2409  001432  ECA3  F00C         	call	___ftpack	;wreg free
  2410  001436  C001  F01C         	movff	?___ftpack,?___ftadd
  2411  00143A  C002  F01D         	movff	?___ftpack+1,?___ftadd+1
  2412  00143E  C003  F01E         	movff	?___ftpack+2,?___ftadd+2
  2413  001442  D000               	goto	l598
  2414  001444                     l598:
  2415  001444  0012               	return		;funcret
  2416  001446                     __end_of___ftadd:
  2417                           	opt stack 0
  2418                           tblptru	equ	0xFF8
  2419                           tblptrh	equ	0xFF7
  2420                           tblptrl	equ	0xFF6
  2421                           tablat	equ	0xFF5
  2422                           prodh	equ	0xFF4
  2423                           prodl	equ	0xFF3
  2424                           postinc0	equ	0xFEE
  2425                           postdec1	equ	0xFE5
  2426                           fsr1l	equ	0xFE1
  2427                           indf2	equ	0xFDF
  2428                           postinc2	equ	0xFDE
  2429                           postdec2	equ	0xFDD
  2430                           fsr2h	equ	0xFDA
  2431                           fsr2l	equ	0xFD9
  2432                           status	equ	0xFD8
  2433                           
  2434 ;; *************** function ___awtoft *****************
  2435 ;; Defined at:
  2436 ;;		line 32 in file "D:\Program Files (x86)\Microchip\xc8\v1.34\sources\common\awtoft.c"
  2437 ;; Parameters:    Size  Location     Type
  2438 ;;  c               2    8[COMRAM] int 
  2439 ;; Auto vars:     Size  Location     Type
  2440 ;;  sign            1   11[COMRAM] unsigned char 
  2441 ;; Return value:  Size  Location     Type
  2442 ;;                  3    8[COMRAM] float 
  2443 ;; Registers used:
  2444 ;;		wreg, status,2, status,0, cstack
  2445 ;; Tracked objects:
  2446 ;;		On entry : 0/0
  2447 ;;		On exit  : 0/0
  2448 ;;		Unchanged: 0/0
  2449 ;; Data sizes:     COMRAM   BANK0   BANK1   BANK2   BANK3   BANK4   BANK5   BANK6   BANK7   BANK8   BANK9  BANK10  BANK1
      +1  BANK12  BANK13  BANK14  BANK15
  2450 ;;      Params:         3       0       0       0       0       0       0       0       0       0       0       0       
      +0       0       0       0       0
  2451 ;;      Locals:         1       0       0       0       0       0       0       0       0       0       0       0       
      +0       0       0       0       0
  2452 ;;      Temps:          0       0       0       0       0       0       0       0       0       0       0       0       
      +0       0       0       0       0
  2453 ;;      Totals:         4       0       0       0       0       0       0       0       0       0       0       0       
      +0       0       0       0       0
  2454 ;;Total ram usage:        4 bytes
  2455 ;; Hardware stack levels used:    1
  2456 ;; Hardware stack levels required when called:    1
  2457 ;; This function calls:
  2458 ;;		___ftpack
  2459 ;; This function is called by:
  2460 ;;		_main
  2461 ;; This function uses a non-reentrant model
  2462 ;;
  2463                           
  2464                           	psect	text11
  2465  001D0C                     __ptext11:
  2466                           	opt stack 0
  2467  001D0C                     ___awtoft:
  2468                           	opt stack 29
  2469                           
  2470                           ;incstack = 0
  2471  001D0C  0E00               	movlw	0
  2472  001D0E  6E0C               	movwf	___awtoft@sign,c
  2473  001D10  AE0A               	btfss	___awtoft@c+1,7,c
  2474  001D12  D007               	goto	l2028
  2475  001D14  6C09               	negf	___awtoft@c,c
  2476  001D16  1E0A               	comf	___awtoft@c+1,f,c
  2477  001D18  B0D8               	btfsc	status,0,c
  2478  001D1A  2A0A               	incf	___awtoft@c+1,f,c
  2479  001D1C  0E01               	movlw	1
  2480  001D1E  6E0C               	movwf	___awtoft@sign,c
  2481  001D20  D000               	goto	l2028
  2482  001D22                     l2028:
  2483  001D22  C009  F001         	movff	___awtoft@c,___ftpack@arg
  2484  001D26  C00A  F002         	movff	___awtoft@c+1,___ftpack@arg+1
  2485  001D2A  6A03               	clrf	___ftpack@arg+2,c
  2486  001D2C  0E8E               	movlw	142
  2487  001D2E  6E04               	movwf	___ftpack@exp,c
  2488  001D30  C00C  F005         	movff	___awtoft@sign,___ftpack@sign
  2489  001D34  ECA3  F00C         	call	___ftpack	;wreg free
  2490  001D38  C001  F009         	movff	?___ftpack,?___awtoft
  2491  001D3C  C002  F00A         	movff	?___ftpack+1,?___awtoft+1
  2492  001D40  C003  F00B         	movff	?___ftpack+2,?___awtoft+2
  2493  001D44  D000               	goto	l467
  2494  001D46                     l467:
  2495  001D46  0012               	return		;funcret
  2496  001D48                     __end_of___awtoft:
  2497                           	opt stack 0
  2498                           tblptru	equ	0xFF8
  2499                           tblptrh	equ	0xFF7
  2500                           tblptrl	equ	0xFF6
  2501                           tablat	equ	0xFF5
  2502                           prodh	equ	0xFF4
  2503                           prodl	equ	0xFF3
  2504                           postinc0	equ	0xFEE
  2505                           postdec1	equ	0xFE5
  2506                           fsr1l	equ	0xFE1
  2507                           indf2	equ	0xFDF
  2508                           postinc2	equ	0xFDE
  2509                           postdec2	equ	0xFDD
  2510                           fsr2h	equ	0xFDA
  2511                           fsr2l	equ	0xFD9
  2512                           status	equ	0xFD8
  2513                           
  2514 ;; *************** function ___ftpack *****************
  2515 ;; Defined at:
  2516 ;;		line 62 in file "D:\Program Files (x86)\Microchip\xc8\v1.34\sources\common\float.c"
  2517 ;; Parameters:    Size  Location     Type
  2518 ;;  arg             3    0[COMRAM] unsigned um
  2519 ;;  exp             1    3[COMRAM] unsigned char 
  2520 ;;  sign            1    4[COMRAM] unsigned char 
  2521 ;; Auto vars:     Size  Location     Type
  2522 ;;		None
  2523 ;; Return value:  Size  Location     Type
  2524 ;;                  3    0[COMRAM] float 
  2525 ;; Registers used:
  2526 ;;		wreg, status,2, status,0
  2527 ;; Tracked objects:
  2528 ;;		On entry : 0/0
  2529 ;;		On exit  : 0/0
  2530 ;;		Unchanged: 0/0
  2531 ;; Data sizes:     COMRAM   BANK0   BANK1   BANK2   BANK3   BANK4   BANK5   BANK6   BANK7   BANK8   BANK9  BANK10  BANK1
      +1  BANK12  BANK13  BANK14  BANK15
  2532 ;;      Params:         5       0       0       0       0       0       0       0       0       0       0       0       
      +0       0       0       0       0
  2533 ;;      Locals:         0       0       0       0       0       0       0       0       0       0       0       0       
      +0       0       0       0       0
  2534 ;;      Temps:          3       0       0       0       0       0       0       0       0       0       0       0       
      +0       0       0       0       0
  2535 ;;      Totals:         8       0       0       0       0       0       0       0       0       0       0       0       
      +0       0       0       0       0
  2536 ;;Total ram usage:        8 bytes
  2537 ;; Hardware stack levels used:    1
  2538 ;; This function calls:
  2539 ;;		Nothing
  2540 ;; This function is called by:
  2541 ;;		___awtoft
  2542 ;;		___ftadd
  2543 ;;		___ftdiv
  2544 ;;		___ftmul
  2545 ;; This function uses a non-reentrant model
  2546 ;;
  2547                           
  2548                           	psect	text12
  2549  001946                     __ptext12:
  2550                           	opt stack 0
  2551  001946                     ___ftpack:
  2552                           	opt stack 29
  2553                           
  2554                           ;incstack = 0
  2555  001946  5004               	movf	___ftpack@exp,w,c
  2556  001948  B4D8               	btfsc	status,2,c
  2557  00194A  D005               	goto	l1570
  2558  00194C  5001               	movf	___ftpack@arg,w,c
  2559  00194E  1002               	iorwf	___ftpack@arg+1,w,c
  2560  001950  1003               	iorwf	___ftpack@arg+2,w,c
  2561  001952  A4D8               	btfss	status,2,c
  2562  001954  D00E               	goto	l1576
  2563  001956                     l1570:
  2564  001956  0E00               	movlw	0
  2565  001958  6E01               	movwf	?___ftpack,c
  2566  00195A  0E00               	movlw	0
  2567  00195C  6E02               	movwf	?___ftpack+1,c
  2568  00195E  0E00               	movlw	0
  2569  001960  6E03               	movwf	?___ftpack+2,c
  2570  001962  D053               	goto	l557
  2571  001964  D006               	goto	l1576
  2572  001966                     l1574:
  2573  001966  2A04               	incf	___ftpack@exp,f,c
  2574  001968  90D8               	bcf	status,0,c
  2575  00196A  3203               	rrcf	___ftpack@arg+2,f,c
  2576  00196C  3202               	rrcf	___ftpack@arg+1,f,c
  2577  00196E  3201               	rrcf	___ftpack@arg,f,c
  2578  001970  D000               	goto	l1576
  2579  001972                     l1576:
  2580  001972  0E00               	movlw	0
  2581  001974  1401               	andwf	___ftpack@arg,w,c
  2582  001976  6E06               	movwf	??___ftpack& (0+255),c
  2583  001978  0E00               	movlw	0
  2584  00197A  1402               	andwf	___ftpack@arg+1,w,c
  2585  00197C  6E07               	movwf	(??___ftpack+1)& (0+255),c
  2586  00197E  0EFE               	movlw	254
  2587  001980  1403               	andwf	___ftpack@arg+2,w,c
  2588  001982  6E08               	movwf	(??___ftpack+2)& (0+255),c
  2589  001984  5006               	movf	??___ftpack,w,c
  2590  001986  1007               	iorwf	??___ftpack+1,w,c
  2591  001988  1008               	iorwf	??___ftpack+2,w,c
  2592  00198A  B4D8               	btfsc	status,2,c
  2593  00198C  D00E               	goto	l1582
  2594  00198E  D7EB               	goto	l1574
  2595  001990  D00C               	goto	l1582
  2596  001992                     l1578:
  2597  001992  2A04               	incf	___ftpack@exp,f,c
  2598  001994  0E01               	movlw	1
  2599  001996  2601               	addwf	___ftpack@arg,f,c
  2600  001998  0E00               	movlw	0
  2601  00199A  2202               	addwfc	___ftpack@arg+1,f,c
  2602  00199C  0E00               	movlw	0
  2603  00199E  2203               	addwfc	___ftpack@arg+2,f,c
  2604  0019A0  90D8               	bcf	status,0,c
  2605  0019A2  3203               	rrcf	___ftpack@arg+2,f,c
  2606  0019A4  3202               	rrcf	___ftpack@arg+1,f,c
  2607  0019A6  3201               	rrcf	___ftpack@arg,f,c
  2608  0019A8  D000               	goto	l1582
  2609  0019AA                     l1582:
  2610  0019AA  0E00               	movlw	0
  2611  0019AC  1401               	andwf	___ftpack@arg,w,c
  2612  0019AE  6E06               	movwf	??___ftpack& (0+255),c
  2613  0019B0  0E00               	movlw	0
  2614  0019B2  1402               	andwf	___ftpack@arg+1,w,c
  2615  0019B4  6E07               	movwf	(??___ftpack+1)& (0+255),c
  2616  0019B6  0EFF               	movlw	255
  2617  0019B8  1403               	andwf	___ftpack@arg+2,w,c
  2618  0019BA  6E08               	movwf	(??___ftpack+2)& (0+255),c
  2619  0019BC  5006               	movf	??___ftpack,w,c
  2620  0019BE  1007               	iorwf	??___ftpack+1,w,c
  2621  0019C0  1008               	iorwf	??___ftpack+2,w,c
  2622  0019C2  B4D8               	btfsc	status,2,c
  2623  0019C4  D008               	goto	l1586
  2624  0019C6  D7E5               	goto	l1578
  2625  0019C8  D006               	goto	l1586
  2626  0019CA                     l1584:
  2627  0019CA  0604               	decf	___ftpack@exp,f,c
  2628  0019CC  90D8               	bcf	status,0,c
  2629  0019CE  3601               	rlcf	___ftpack@arg,f,c
  2630  0019D0  3602               	rlcf	___ftpack@arg+1,f,c
  2631  0019D2  3603               	rlcf	___ftpack@arg+2,f,c
  2632  0019D4  D000               	goto	l1586
  2633  0019D6                     l1586:
  2634  0019D6  BE02               	btfsc	___ftpack@arg+1,7,c
  2635  0019D8  D004               	goto	l568
  2636  0019DA  0E02               	movlw	2
  2637  0019DC  6004               	cpfslt	___ftpack@exp,c
  2638  0019DE  D7F5               	goto	l1584
  2639  0019E0  D000               	goto	l568
  2640  0019E2                     l568:
  2641  0019E2  B004               	btfsc	___ftpack@exp,0,c
  2642  0019E4  D002               	goto	l1592
  2643  0019E6  9E02               	bcf	___ftpack@arg+1,7,c
  2644  0019E8  D000               	goto	l1592
  2645  0019EA                     l1592:
  2646  0019EA  90D8               	bcf	status,0,c
  2647  0019EC  3204               	rrcf	___ftpack@exp,f,c
  2648  0019EE  5004               	movf	___ftpack@exp,w,c
  2649  0019F0  1203               	iorwf	___ftpack@arg+2,f,c
  2650  0019F2  5005               	movf	___ftpack@sign,w,c
  2651  0019F4  B4D8               	btfsc	status,2,c
  2652  0019F6  D002               	goto	l1598
  2653  0019F8  8E03               	bsf	___ftpack@arg+2,7,c
  2654  0019FA  D000               	goto	l1598
  2655  0019FC                     l1598:
  2656  0019FC  C001  F001         	movff	___ftpack@arg,?___ftpack
  2657  001A00  C002  F002         	movff	___ftpack@arg+1,?___ftpack+1
  2658  001A04  C003  F003         	movff	___ftpack@arg+2,?___ftpack+2
  2659  001A08  D000               	goto	l557
  2660  001A0A                     l557:
  2661  001A0A  0012               	return		;funcret
  2662  001A0C                     __end_of___ftpack:
  2663                           	opt stack 0
  2664                           tblptru	equ	0xFF8
  2665                           tblptrh	equ	0xFF7
  2666                           tblptrl	equ	0xFF6
  2667                           tablat	equ	0xFF5
  2668                           prodh	equ	0xFF4
  2669                           prodl	equ	0xFF3
  2670                           postinc0	equ	0xFEE
  2671                           postdec1	equ	0xFE5
  2672                           fsr1l	equ	0xFE1
  2673                           indf2	equ	0xFDF
  2674                           postinc2	equ	0xFDE
  2675                           postdec2	equ	0xFDD
  2676                           fsr2h	equ	0xFDA
  2677                           fsr2l	equ	0xFD9
  2678                           status	equ	0xFD8
  2679                           
  2680 ;; *************** function ___awmod *****************
  2681 ;; Defined at:
  2682 ;;		line 8 in file "D:\Program Files (x86)\Microchip\xc8\v1.34\sources\common\awmod.c"
  2683 ;; Parameters:    Size  Location     Type
  2684 ;;  dividend        2    0[COMRAM] int 
  2685 ;;  divisor         2    2[COMRAM] int 
  2686 ;; Auto vars:     Size  Location     Type
  2687 ;;  sign            1    5[COMRAM] unsigned char 
  2688 ;;  counter         1    4[COMRAM] unsigned char 
  2689 ;; Return value:  Size  Location     Type
  2690 ;;                  2    0[COMRAM] int 
  2691 ;; Registers used:
  2692 ;;		wreg, status,2, status,0
  2693 ;; Tracked objects:
  2694 ;;		On entry : 0/0
  2695 ;;		On exit  : 0/0
  2696 ;;		Unchanged: 0/0
  2697 ;; Data sizes:     COMRAM   BANK0   BANK1   BANK2   BANK3   BANK4   BANK5   BANK6   BANK7   BANK8   BANK9  BANK10  BANK1
      +1  BANK12  BANK13  BANK14  BANK15
  2698 ;;      Params:         4       0       0       0       0       0       0       0       0       0       0       0       
      +0       0       0       0       0
  2699 ;;      Locals:         2       0       0       0       0       0       0       0       0       0       0       0       
      +0       0       0       0       0
  2700 ;;      Temps:          0       0       0       0       0       0       0       0       0       0       0       0       
      +0       0       0       0       0
  2701 ;;      Totals:         6       0       0       0       0       0       0       0       0       0       0       0       
      +0       0       0       0       0
  2702 ;;Total ram usage:        6 bytes
  2703 ;; Hardware stack levels used:    1
  2704 ;; This function calls:
  2705 ;;		Nothing
  2706 ;; This function is called by:
  2707 ;;		_main
  2708 ;; This function uses a non-reentrant model
  2709 ;;
  2710                           
  2711                           	psect	text13
  2712  001B32                     __ptext13:
  2713                           	opt stack 0
  2714  001B32                     ___awmod:
  2715                           	opt stack 30
  2716                           
  2717                           ;incstack = 0
  2718  001B32  0E00               	movlw	0
  2719  001B34  6E06               	movwf	___awmod@sign,c
  2720  001B36  AE02               	btfss	___awmod@dividend+1,7,c
  2721  001B38  D007               	goto	l1992
  2722  001B3A  6C01               	negf	___awmod@dividend,c
  2723  001B3C  1E02               	comf	___awmod@dividend+1,f,c
  2724  001B3E  B0D8               	btfsc	status,0,c
  2725  001B40  2A02               	incf	___awmod@dividend+1,f,c
  2726  001B42  0E01               	movlw	1
  2727  001B44  6E06               	movwf	___awmod@sign,c
  2728  001B46  D000               	goto	l1992
  2729  001B48                     l1992:
  2730  001B48  AE04               	btfss	___awmod@divisor+1,7,c
  2731  001B4A  D005               	goto	l1996
  2732  001B4C  6C03               	negf	___awmod@divisor,c
  2733  001B4E  1E04               	comf	___awmod@divisor+1,f,c
  2734  001B50  B0D8               	btfsc	status,0,c
  2735  001B52  2A04               	incf	___awmod@divisor+1,f,c
  2736  001B54  D000               	goto	l1996
  2737  001B56                     l1996:
  2738  001B56  5003               	movf	___awmod@divisor,w,c
  2739  001B58  1004               	iorwf	___awmod@divisor+1,w,c
  2740  001B5A  B4D8               	btfsc	status,2,c
  2741  001B5C  D01D               	goto	l2012
  2742  001B5E  0E01               	movlw	1
  2743  001B60  6E05               	movwf	___awmod@counter,c
  2744  001B62  D005               	goto	l2002
  2745  001B64                     l2000:
  2746  001B64  90D8               	bcf	status,0,c
  2747  001B66  3603               	rlcf	___awmod@divisor,f,c
  2748  001B68  3604               	rlcf	___awmod@divisor+1,f,c
  2749  001B6A  2A05               	incf	___awmod@counter,f,c
  2750  001B6C  D000               	goto	l2002
  2751  001B6E                     l2002:
  2752  001B6E  BE04               	btfsc	___awmod@divisor+1,7,c
  2753  001B70  D002               	goto	l2004
  2754  001B72  D7F8               	goto	l2000
  2755  001B74  D000               	goto	l2004
  2756  001B76                     l2004:
  2757  001B76  5003               	movf	___awmod@divisor,w,c
  2758  001B78  5C01               	subwf	___awmod@dividend,w,c
  2759  001B7A  5004               	movf	___awmod@divisor+1,w,c
  2760  001B7C  5802               	subwfb	___awmod@dividend+1,w,c
  2761  001B7E  A0D8               	btfss	status,0,c
  2762  001B80  D005               	goto	l2008
  2763  001B82  5003               	movf	___awmod@divisor,w,c
  2764  001B84  5E01               	subwf	___awmod@dividend,f,c
  2765  001B86  5004               	movf	___awmod@divisor+1,w,c
  2766  001B88  5A02               	subwfb	___awmod@dividend+1,f,c
  2767  001B8A  D000               	goto	l2008
  2768  001B8C                     l2008:
  2769  001B8C  90D8               	bcf	status,0,c
  2770  001B8E  3204               	rrcf	___awmod@divisor+1,f,c
  2771  001B90  3203               	rrcf	___awmod@divisor,f,c
  2772  001B92  2E05               	decfsz	___awmod@counter,f,c
  2773  001B94  D7F0               	goto	l2004
  2774  001B96  D000               	goto	l2012
  2775  001B98                     l2012:
  2776  001B98  5006               	movf	___awmod@sign,w,c
  2777  001B9A  B4D8               	btfsc	status,2,c
  2778  001B9C  D005               	goto	l2016
  2779  001B9E  6C01               	negf	___awmod@dividend,c
  2780  001BA0  1E02               	comf	___awmod@dividend+1,f,c
  2781  001BA2  B0D8               	btfsc	status,0,c
  2782  001BA4  2A02               	incf	___awmod@dividend+1,f,c
  2783  001BA6  D000               	goto	l2016
  2784  001BA8                     l2016:
  2785  001BA8  C001  F001         	movff	___awmod@dividend,?___awmod
  2786  001BAC  C002  F002         	movff	___awmod@dividend+1,?___awmod+1
  2787  001BB0  D000               	goto	l455
  2788  001BB2                     l455:
  2789  001BB2  0012               	return		;funcret
  2790  001BB4                     __end_of___awmod:
  2791                           	opt stack 0
  2792                           tblptru	equ	0xFF8
  2793                           tblptrh	equ	0xFF7
  2794                           tblptrl	equ	0xFF6
  2795                           tablat	equ	0xFF5
  2796                           prodh	equ	0xFF4
  2797                           prodl	equ	0xFF3
  2798                           postinc0	equ	0xFEE
  2799                           postdec1	equ	0xFE5
  2800                           fsr1l	equ	0xFE1
  2801                           indf2	equ	0xFDF
  2802                           postinc2	equ	0xFDE
  2803                           postdec2	equ	0xFDD
  2804                           fsr2h	equ	0xFDA
  2805                           fsr2l	equ	0xFD9
  2806                           status	equ	0xFD8
  2807                           
  2808 ;; *************** function _WAIT_1_SEC *****************
  2809 ;; Defined at:
  2810 ;;		line 278 in file "lab5p1.c"
  2811 ;; Parameters:    Size  Location     Type
  2812 ;;		None
  2813 ;; Auto vars:     Size  Location     Type
  2814 ;;  j               2    0[COMRAM] int 
  2815 ;; Return value:  Size  Location     Type
  2816 ;;		None               void
  2817 ;; Registers used:
  2818 ;;		wreg, status,2, status,0
  2819 ;; Tracked objects:
  2820 ;;		On entry : 0/0
  2821 ;;		On exit  : 0/0
  2822 ;;		Unchanged: 0/0
  2823 ;; Data sizes:     COMRAM   BANK0   BANK1   BANK2   BANK3   BANK4   BANK5   BANK6   BANK7   BANK8   BANK9  BANK10  BANK1
      +1  BANK12  BANK13  BANK14  BANK15
  2824 ;;      Params:         0       0       0       0       0       0       0       0       0       0       0       0       
      +0       0       0       0       0
  2825 ;;      Locals:         2       0       0       0       0       0       0       0       0       0       0       0       
      +0       0       0       0       0
  2826 ;;      Temps:          0       0       0       0       0       0       0       0       0       0       0       0       
      +0       0       0       0       0
  2827 ;;      Totals:         2       0       0       0       0       0       0       0       0       0       0       0       
      +0       0       0       0       0
  2828 ;;Total ram usage:        2 bytes
  2829 ;; Hardware stack levels used:    1
  2830 ;; This function calls:
  2831 ;;		Nothing
  2832 ;; This function is called by:
  2833 ;;		_main
  2834 ;; This function uses a non-reentrant model
  2835 ;;
  2836                           
  2837                           	psect	text14
  2838  001DBC                     __ptext14:
  2839                           	opt stack 0
  2840  001DBC                     _WAIT_1_SEC:
  2841                           	opt stack 30
  2842                           
  2843                           ;lab5p1.c: 280: for (int j=0; j<17000; j++);
  2844                           
  2845                           ;incstack = 0
  2846  001DBC  0E00               	movlw	0
  2847  001DBE  6E02               	movwf	WAIT_1_SEC@j+1,c
  2848  001DC0  0E00               	movlw	0
  2849  001DC2  6E01               	movwf	WAIT_1_SEC@j,c
  2850  001DC4                     l1128:
  2851  001DC4  BE02               	btfsc	WAIT_1_SEC@j+1,7,c
  2852  001DC6  D008               	goto	l1132
  2853  001DC8  0E68               	movlw	104
  2854  001DCA  5C01               	subwf	WAIT_1_SEC@j,w,c
  2855  001DCC  0E42               	movlw	66
  2856  001DCE  5802               	subwfb	WAIT_1_SEC@j+1,w,c
  2857  001DD0  B0D8               	btfsc	status,0,c
  2858  001DD2  D005               	goto	l177
  2859  001DD4  D001               	goto	l1132
  2860  001DD6  D003               	goto	l177
  2861  001DD8                     l1132:
  2862  001DD8  4A01               	infsnz	WAIT_1_SEC@j,f,c
  2863  001DDA  2A02               	incf	WAIT_1_SEC@j+1,f,c
  2864  001DDC  D7F3               	goto	l1128
  2865  001DDE                     l177:
  2866  001DDE  0012               	return		;funcret
  2867  001DE0                     __end_of_WAIT_1_SEC:
  2868                           	opt stack 0
  2869                           tblptru	equ	0xFF8
  2870                           tblptrh	equ	0xFF7
  2871                           tblptrl	equ	0xFF6
  2872                           tablat	equ	0xFF5
  2873                           prodh	equ	0xFF4
  2874                           prodl	equ	0xFF3
  2875                           postinc0	equ	0xFEE
  2876                           postdec1	equ	0xFE5
  2877                           fsr1l	equ	0xFE1
  2878                           indf2	equ	0xFDF
  2879                           postinc2	equ	0xFDE
  2880                           postdec2	equ	0xFDD
  2881                           fsr2h	equ	0xFDA
  2882                           fsr2l	equ	0xFD9
  2883                           status	equ	0xFD8
  2884                           
  2885 ;; *************** function _Set_ADCON0 *****************
  2886 ;; Defined at:
  2887 ;;		line 223 in file "lab5p1.c"
  2888 ;; Parameters:    Size  Location     Type
  2889 ;;  AN_pin          1    wreg     unsigned char 
  2890 ;; Auto vars:     Size  Location     Type
  2891 ;;  AN_pin          1    0[COMRAM] unsigned char 
  2892 ;; Return value:  Size  Location     Type
  2893 ;;		None               void
  2894 ;; Registers used:
  2895 ;;		wreg, status,2, status,0, prodl, prodh
  2896 ;; Tracked objects:
  2897 ;;		On entry : 0/0
  2898 ;;		On exit  : 0/0
  2899 ;;		Unchanged: 0/0
  2900 ;; Data sizes:     COMRAM   BANK0   BANK1   BANK2   BANK3   BANK4   BANK5   BANK6   BANK7   BANK8   BANK9  BANK10  BANK1
      +1  BANK12  BANK13  BANK14  BANK15
  2901 ;;      Params:         0       0       0       0       0       0       0       0       0       0       0       0       
      +0       0       0       0       0
  2902 ;;      Locals:         1       0       0       0       0       0       0       0       0       0       0       0       
      +0       0       0       0       0
  2903 ;;      Temps:          0       0       0       0       0       0       0       0       0       0       0       0       
      +0       0       0       0       0
  2904 ;;      Totals:         1       0       0       0       0       0       0       0       0       0       0       0       
      +0       0       0       0       0
  2905 ;;Total ram usage:        1 bytes
  2906 ;; Hardware stack levels used:    1
  2907 ;; This function calls:
  2908 ;;		Nothing
  2909 ;; This function is called by:
  2910 ;;		_main
  2911 ;; This function uses a non-reentrant model
  2912 ;;
  2913                           
  2914                           	psect	text15
  2915  001E26                     __ptext15:
  2916                           	opt stack 0
  2917  001E26                     _Set_ADCON0:
  2918                           	opt stack 30
  2919                           
  2920                           ;incstack = 0
  2921                           ;Set_ADCON0@AN_pin stored from wreg
  2922  001E26  6E01               	movwf	Set_ADCON0@AN_pin,c
  2923                           
  2924                           ;lab5p1.c: 225: ADCON0 = AN_pin * 4 + 1;
  2925  001E28  5001               	movf	Set_ADCON0@AN_pin,w,c
  2926  001E2A  0D04               	mullw	4
  2927  001E2C  28F3               	incf	prodl,w,c
  2928  001E2E  6EC2               	movwf	4034,c	;volatile
  2929  001E30  0012               	return		;funcret
  2930  001E32                     __end_of_Set_ADCON0:
  2931                           	opt stack 0
  2932                           tblptru	equ	0xFF8
  2933                           tblptrh	equ	0xFF7
  2934                           tblptrl	equ	0xFF6
  2935                           tablat	equ	0xFF5
  2936                           prodh	equ	0xFF4
  2937                           prodl	equ	0xFF3
  2938                           postinc0	equ	0xFEE
  2939                           postdec1	equ	0xFE5
  2940                           fsr1l	equ	0xFE1
  2941                           indf2	equ	0xFDF
  2942                           postinc2	equ	0xFDE
  2943                           postdec2	equ	0xFDD
  2944                           fsr2h	equ	0xFDA
  2945                           fsr2l	equ	0xFD9
  2946                           status	equ	0xFD8
  2947                           
  2948 ;; *************** function _SET_RGB_D3 *****************
  2949 ;; Defined at:
  2950 ;;		line 264 in file "lab5p1.c"
  2951 ;; Parameters:    Size  Location     Type
  2952 ;;  voltage         2    0[COMRAM] int 
  2953 ;; Auto vars:     Size  Location     Type
  2954 ;;		None
  2955 ;; Return value:  Size  Location     Type
  2956 ;;		None               void
  2957 ;; Registers used:
  2958 ;;		wreg, status,2, status,0, cstack
  2959 ;; Tracked objects:
  2960 ;;		On entry : 0/0
  2961 ;;		On exit  : 0/0
  2962 ;;		Unchanged: 0/0
  2963 ;; Data sizes:     COMRAM   BANK0   BANK1   BANK2   BANK3   BANK4   BANK5   BANK6   BANK7   BANK8   BANK9  BANK10  BANK1
      +1  BANK12  BANK13  BANK14  BANK15
  2964 ;;      Params:         2       0       0       0       0       0       0       0       0       0       0       0       
      +0       0       0       0       0
  2965 ;;      Locals:         0       0       0       0       0       0       0       0       0       0       0       0       
      +0       0       0       0       0
  2966 ;;      Temps:          0       0       0       0       0       0       0       0       0       0       0       0       
      +0       0       0       0       0
  2967 ;;      Totals:         2       0       0       0       0       0       0       0       0       0       0       0       
      +0       0       0       0       0
  2968 ;;Total ram usage:        2 bytes
  2969 ;; Hardware stack levels used:    1
  2970 ;; Hardware stack levels required when called:    1
  2971 ;; This function calls:
  2972 ;;		_SET_D3_BLUE
  2973 ;;		_SET_D3_GREEN
  2974 ;;		_SET_D3_OFF
  2975 ;;		_SET_D3_RED
  2976 ;;		_SET_D3_WHITE
  2977 ;; This function is called by:
  2978 ;;		_main
  2979 ;; This function uses a non-reentrant model
  2980 ;;
  2981                           
  2982                           	psect	text16
  2983  001AA2                     __ptext16:
  2984                           	opt stack 0
  2985  001AA2                     _SET_RGB_D3:
  2986                           	opt stack 29
  2987                           
  2988                           ;lab5p1.c: 266: if (voltage < 2600)
  2989                           
  2990                           ;incstack = 0
  2991  001AA2  BE02               	btfsc	SET_RGB_D3@voltage+1,7,c
  2992  001AA4  D006               	goto	l1748
  2993  001AA6  0E28               	movlw	40
  2994  001AA8  5C01               	subwf	SET_RGB_D3@voltage,w,c
  2995  001AAA  0E0A               	movlw	10
  2996  001AAC  5802               	subwfb	SET_RGB_D3@voltage+1,w,c
  2997  001AAE  B0D8               	btfsc	status,0,c
  2998  001AB0  D003               	goto	l1750
  2999  001AB2                     l1748:
  3000                           
  3001                           ;lab5p1.c: 267: SET_D3_WHITE();
  3002  001AB2  EC1E  F00F         	call	_SET_D3_WHITE	;wreg free
  3003  001AB6  D03C               	goto	l172
  3004  001AB8                     l1750:
  3005                           
  3006                           ;lab5p1.c: 268: else if (voltage >= 2600 && voltage < 2900)
  3007  001AB8  BE02               	btfsc	SET_RGB_D3@voltage+1,7,c
  3008  001ABA  D011               	goto	l1756
  3009  001ABC  0E28               	movlw	40
  3010  001ABE  5C01               	subwf	SET_RGB_D3@voltage,w,c
  3011  001AC0  0E0A               	movlw	10
  3012  001AC2  5802               	subwfb	SET_RGB_D3@voltage+1,w,c
  3013  001AC4  A0D8               	btfss	status,0,c
  3014  001AC6  D00B               	goto	l1756
  3015  001AC8  BE02               	btfsc	SET_RGB_D3@voltage+1,7,c
  3016  001ACA  D006               	goto	l1754
  3017  001ACC  0E54               	movlw	84
  3018  001ACE  5C01               	subwf	SET_RGB_D3@voltage,w,c
  3019  001AD0  0E0B               	movlw	11
  3020  001AD2  5802               	subwfb	SET_RGB_D3@voltage+1,w,c
  3021  001AD4  B0D8               	btfsc	status,0,c
  3022  001AD6  D003               	goto	l1756
  3023  001AD8                     l1754:
  3024                           
  3025                           ;lab5p1.c: 269: SET_D3_RED();
  3026  001AD8  EC22  F00F         	call	_SET_D3_RED	;wreg free
  3027  001ADC  D029               	goto	l172
  3028  001ADE                     l1756:
  3029                           
  3030                           ;lab5p1.c: 270: else if (voltage >= 2900 && voltage < 3200)
  3031  001ADE  BE02               	btfsc	SET_RGB_D3@voltage+1,7,c
  3032  001AE0  D011               	goto	l1762
  3033  001AE2  0E54               	movlw	84
  3034  001AE4  5C01               	subwf	SET_RGB_D3@voltage,w,c
  3035  001AE6  0E0B               	movlw	11
  3036  001AE8  5802               	subwfb	SET_RGB_D3@voltage+1,w,c
  3037  001AEA  A0D8               	btfss	status,0,c
  3038  001AEC  D00B               	goto	l1762
  3039  001AEE  BE02               	btfsc	SET_RGB_D3@voltage+1,7,c
  3040  001AF0  D006               	goto	l1760
  3041  001AF2  0E80               	movlw	128
  3042  001AF4  5C01               	subwf	SET_RGB_D3@voltage,w,c
  3043  001AF6  0E0C               	movlw	12
  3044  001AF8  5802               	subwfb	SET_RGB_D3@voltage+1,w,c
  3045  001AFA  B0D8               	btfsc	status,0,c
  3046  001AFC  D003               	goto	l1762
  3047  001AFE                     l1760:
  3048                           
  3049                           ;lab5p1.c: 271: SET_D3_BLUE();
  3050  001AFE  EC2E  F00F         	call	_SET_D3_BLUE	;wreg free
  3051  001B02  D016               	goto	l172
  3052  001B04                     l1762:
  3053                           
  3054                           ;lab5p1.c: 272: else if (voltage >= 3200 && voltage < 3600)
  3055  001B04  BE02               	btfsc	SET_RGB_D3@voltage+1,7,c
  3056  001B06  D011               	goto	l1768
  3057  001B08  0E80               	movlw	128
  3058  001B0A  5C01               	subwf	SET_RGB_D3@voltage,w,c
  3059  001B0C  0E0C               	movlw	12
  3060  001B0E  5802               	subwfb	SET_RGB_D3@voltage+1,w,c
  3061  001B10  A0D8               	btfss	status,0,c
  3062  001B12  D00B               	goto	l1768
  3063  001B14  BE02               	btfsc	SET_RGB_D3@voltage+1,7,c
  3064  001B16  D006               	goto	l1766
  3065  001B18  0E10               	movlw	16
  3066  001B1A  5C01               	subwf	SET_RGB_D3@voltage,w,c
  3067  001B1C  0E0E               	movlw	14
  3068  001B1E  5802               	subwfb	SET_RGB_D3@voltage+1,w,c
  3069  001B20  B0D8               	btfsc	status,0,c
  3070  001B22  D003               	goto	l1768
  3071  001B24                     l1766:
  3072                           
  3073                           ;lab5p1.c: 273: SET_D3_GREEN();
  3074  001B24  EC2A  F00F         	call	_SET_D3_GREEN	;wreg free
  3075  001B28  D003               	goto	l172
  3076  001B2A                     l1768:
  3077                           
  3078                           ;lab5p1.c: 274: else
  3079                           ;lab5p1.c: 275: SET_D3_OFF();
  3080  001B2A  EC26  F00F         	call	_SET_D3_OFF	;wreg free
  3081  001B2E  D000               	goto	l172
  3082  001B30                     l172:
  3083  001B30  0012               	return		;funcret
  3084  001B32                     __end_of_SET_RGB_D3:
  3085                           	opt stack 0
  3086                           tblptru	equ	0xFF8
  3087                           tblptrh	equ	0xFF7
  3088                           tblptrl	equ	0xFF6
  3089                           tablat	equ	0xFF5
  3090                           prodh	equ	0xFF4
  3091                           prodl	equ	0xFF3
  3092                           postinc0	equ	0xFEE
  3093                           postdec1	equ	0xFE5
  3094                           fsr1l	equ	0xFE1
  3095                           indf2	equ	0xFDF
  3096                           postinc2	equ	0xFDE
  3097                           postdec2	equ	0xFDD
  3098                           fsr2h	equ	0xFDA
  3099                           fsr2l	equ	0xFD9
  3100                           status	equ	0xFD8
  3101                           
  3102 ;; *************** function _SET_D3_WHITE *****************
  3103 ;; Defined at:
  3104 ;;		line 186 in file "lab5p1.c"
  3105 ;; Parameters:    Size  Location     Type
  3106 ;;		None
  3107 ;; Auto vars:     Size  Location     Type
  3108 ;;		None
  3109 ;; Return value:  Size  Location     Type
  3110 ;;		None               void
  3111 ;; Registers used:
  3112 ;;		None
  3113 ;; Tracked objects:
  3114 ;;		On entry : 0/0
  3115 ;;		On exit  : 0/0
  3116 ;;		Unchanged: 0/0
  3117 ;; Data sizes:     COMRAM   BANK0   BANK1   BANK2   BANK3   BANK4   BANK5   BANK6   BANK7   BANK8   BANK9  BANK10  BANK1
      +1  BANK12  BANK13  BANK14  BANK15
  3118 ;;      Params:         0       0       0       0       0       0       0       0       0       0       0       0       
      +0       0       0       0       0
  3119 ;;      Locals:         0       0       0       0       0       0       0       0       0       0       0       0       
      +0       0       0       0       0
  3120 ;;      Temps:          0       0       0       0       0       0       0       0       0       0       0       0       
      +0       0       0       0       0
  3121 ;;      Totals:         0       0       0       0       0       0       0       0       0       0       0       0       
      +0       0       0       0       0
  3122 ;;Total ram usage:        0 bytes
  3123 ;; Hardware stack levels used:    1
  3124 ;; This function calls:
  3125 ;;		Nothing
  3126 ;; This function is called by:
  3127 ;;		_SET_RGB_D3
  3128 ;; This function uses a non-reentrant model
  3129 ;;
  3130                           
  3131                           	psect	text17
  3132  001E3C                     __ptext17:
  3133                           	opt stack 0
  3134  001E3C                     _SET_D3_WHITE:
  3135                           	opt stack 29
  3136                           
  3137                           ;lab5p1.c: 188: PORTEbits.RE0 = 1;
  3138                           
  3139                           ;incstack = 0
  3140  001E3C  8084               	bsf	3972,0,c	;volatile
  3141                           
  3142                           ;lab5p1.c: 189: PORTEbits.RE1 = 1;
  3143  001E3E  8284               	bsf	3972,1,c	;volatile
  3144                           
  3145                           ;lab5p1.c: 190: PORTEbits.RE2 = 1;
  3146  001E40  8484               	bsf	3972,2,c	;volatile
  3147  001E42  0012               	return		;funcret
  3148  001E44                     __end_of_SET_D3_WHITE:
  3149                           	opt stack 0
  3150                           tblptru	equ	0xFF8
  3151                           tblptrh	equ	0xFF7
  3152                           tblptrl	equ	0xFF6
  3153                           tablat	equ	0xFF5
  3154                           prodh	equ	0xFF4
  3155                           prodl	equ	0xFF3
  3156                           postinc0	equ	0xFEE
  3157                           postdec1	equ	0xFE5
  3158                           fsr1l	equ	0xFE1
  3159                           indf2	equ	0xFDF
  3160                           postinc2	equ	0xFDE
  3161                           postdec2	equ	0xFDD
  3162                           fsr2h	equ	0xFDA
  3163                           fsr2l	equ	0xFD9
  3164                           status	equ	0xFD8
  3165                           
  3166 ;; *************** function _SET_D3_RED *****************
  3167 ;; Defined at:
  3168 ;;		line 144 in file "lab5p1.c"
  3169 ;; Parameters:    Size  Location     Type
  3170 ;;		None
  3171 ;; Auto vars:     Size  Location     Type
  3172 ;;		None
  3173 ;; Return value:  Size  Location     Type
  3174 ;;		None               void
  3175 ;; Registers used:
  3176 ;;		None
  3177 ;; Tracked objects:
  3178 ;;		On entry : 0/0
  3179 ;;		On exit  : 0/0
  3180 ;;		Unchanged: 0/0
  3181 ;; Data sizes:     COMRAM   BANK0   BANK1   BANK2   BANK3   BANK4   BANK5   BANK6   BANK7   BANK8   BANK9  BANK10  BANK1
      +1  BANK12  BANK13  BANK14  BANK15
  3182 ;;      Params:         0       0       0       0       0       0       0       0       0       0       0       0       
      +0       0       0       0       0
  3183 ;;      Locals:         0       0       0       0       0       0       0       0       0       0       0       0       
      +0       0       0       0       0
  3184 ;;      Temps:          0       0       0       0       0       0       0       0       0       0       0       0       
      +0       0       0       0       0
  3185 ;;      Totals:         0       0       0       0       0       0       0       0       0       0       0       0       
      +0       0       0       0       0
  3186 ;;Total ram usage:        0 bytes
  3187 ;; Hardware stack levels used:    1
  3188 ;; This function calls:
  3189 ;;		Nothing
  3190 ;; This function is called by:
  3191 ;;		_SET_RGB_D3
  3192 ;; This function uses a non-reentrant model
  3193 ;;
  3194                           
  3195                           	psect	text18
  3196  001E44                     __ptext18:
  3197                           	opt stack 0
  3198  001E44                     _SET_D3_RED:
  3199                           	opt stack 29
  3200                           
  3201                           ;lab5p1.c: 146: PORTEbits.RE0 = 1;
  3202                           
  3203                           ;incstack = 0
  3204  001E44  8084               	bsf	3972,0,c	;volatile
  3205                           
  3206                           ;lab5p1.c: 147: PORTEbits.RE1 = 0;
  3207  001E46  9284               	bcf	3972,1,c	;volatile
  3208                           
  3209                           ;lab5p1.c: 148: PORTEbits.RE2 = 0;
  3210  001E48  9484               	bcf	3972,2,c	;volatile
  3211  001E4A  0012               	return		;funcret
  3212  001E4C                     __end_of_SET_D3_RED:
  3213                           	opt stack 0
  3214                           tblptru	equ	0xFF8
  3215                           tblptrh	equ	0xFF7
  3216                           tblptrl	equ	0xFF6
  3217                           tablat	equ	0xFF5
  3218                           prodh	equ	0xFF4
  3219                           prodl	equ	0xFF3
  3220                           postinc0	equ	0xFEE
  3221                           postdec1	equ	0xFE5
  3222                           fsr1l	equ	0xFE1
  3223                           indf2	equ	0xFDF
  3224                           postinc2	equ	0xFDE
  3225                           postdec2	equ	0xFDD
  3226                           fsr2h	equ	0xFDA
  3227                           fsr2l	equ	0xFD9
  3228                           status	equ	0xFD8
  3229                           
  3230 ;; *************** function _SET_D3_OFF *****************
  3231 ;; Defined at:
  3232 ;;		line 137 in file "lab5p1.c"
  3233 ;; Parameters:    Size  Location     Type
  3234 ;;		None
  3235 ;; Auto vars:     Size  Location     Type
  3236 ;;		None
  3237 ;; Return value:  Size  Location     Type
  3238 ;;		None               void
  3239 ;; Registers used:
  3240 ;;		None
  3241 ;; Tracked objects:
  3242 ;;		On entry : 0/0
  3243 ;;		On exit  : 0/0
  3244 ;;		Unchanged: 0/0
  3245 ;; Data sizes:     COMRAM   BANK0   BANK1   BANK2   BANK3   BANK4   BANK5   BANK6   BANK7   BANK8   BANK9  BANK10  BANK1
      +1  BANK12  BANK13  BANK14  BANK15
  3246 ;;      Params:         0       0       0       0       0       0       0       0       0       0       0       0       
      +0       0       0       0       0
  3247 ;;      Locals:         0       0       0       0       0       0       0       0       0       0       0       0       
      +0       0       0       0       0
  3248 ;;      Temps:          0       0       0       0       0       0       0       0       0       0       0       0       
      +0       0       0       0       0
  3249 ;;      Totals:         0       0       0       0       0       0       0       0       0       0       0       0       
      +0       0       0       0       0
  3250 ;;Total ram usage:        0 bytes
  3251 ;; Hardware stack levels used:    1
  3252 ;; This function calls:
  3253 ;;		Nothing
  3254 ;; This function is called by:
  3255 ;;		_SET_RGB_D3
  3256 ;; This function uses a non-reentrant model
  3257 ;;
  3258                           
  3259                           	psect	text19
  3260  001E4C                     __ptext19:
  3261                           	opt stack 0
  3262  001E4C                     _SET_D3_OFF:
  3263                           	opt stack 29
  3264                           
  3265                           ;lab5p1.c: 139: PORTEbits.RE0 = 0;
  3266                           
  3267                           ;incstack = 0
  3268  001E4C  9084               	bcf	3972,0,c	;volatile
  3269                           
  3270                           ;lab5p1.c: 140: PORTEbits.RE1 = 0;
  3271  001E4E  9284               	bcf	3972,1,c	;volatile
  3272                           
  3273                           ;lab5p1.c: 141: PORTEbits.RE2 = 0;
  3274  001E50  9484               	bcf	3972,2,c	;volatile
  3275  001E52  0012               	return		;funcret
  3276  001E54                     __end_of_SET_D3_OFF:
  3277                           	opt stack 0
  3278                           tblptru	equ	0xFF8
  3279                           tblptrh	equ	0xFF7
  3280                           tblptrl	equ	0xFF6
  3281                           tablat	equ	0xFF5
  3282                           prodh	equ	0xFF4
  3283                           prodl	equ	0xFF3
  3284                           postinc0	equ	0xFEE
  3285                           postdec1	equ	0xFE5
  3286                           fsr1l	equ	0xFE1
  3287                           indf2	equ	0xFDF
  3288                           postinc2	equ	0xFDE
  3289                           postdec2	equ	0xFDD
  3290                           fsr2h	equ	0xFDA
  3291                           fsr2l	equ	0xFD9
  3292                           status	equ	0xFD8
  3293                           
  3294 ;; *************** function _SET_D3_GREEN *****************
  3295 ;; Defined at:
  3296 ;;		line 151 in file "lab5p1.c"
  3297 ;; Parameters:    Size  Location     Type
  3298 ;;		None
  3299 ;; Auto vars:     Size  Location     Type
  3300 ;;		None
  3301 ;; Return value:  Size  Location     Type
  3302 ;;		None               void
  3303 ;; Registers used:
  3304 ;;		None
  3305 ;; Tracked objects:
  3306 ;;		On entry : 0/0
  3307 ;;		On exit  : 0/0
  3308 ;;		Unchanged: 0/0
  3309 ;; Data sizes:     COMRAM   BANK0   BANK1   BANK2   BANK3   BANK4   BANK5   BANK6   BANK7   BANK8   BANK9  BANK10  BANK1
      +1  BANK12  BANK13  BANK14  BANK15
  3310 ;;      Params:         0       0       0       0       0       0       0       0       0       0       0       0       
      +0       0       0       0       0
  3311 ;;      Locals:         0       0       0       0       0       0       0       0       0       0       0       0       
      +0       0       0       0       0
  3312 ;;      Temps:          0       0       0       0       0       0       0       0       0       0       0       0       
      +0       0       0       0       0
  3313 ;;      Totals:         0       0       0       0       0       0       0       0       0       0       0       0       
      +0       0       0       0       0
  3314 ;;Total ram usage:        0 bytes
  3315 ;; Hardware stack levels used:    1
  3316 ;; This function calls:
  3317 ;;		Nothing
  3318 ;; This function is called by:
  3319 ;;		_SET_RGB_D3
  3320 ;; This function uses a non-reentrant model
  3321 ;;
  3322                           
  3323                           	psect	text20
  3324  001E54                     __ptext20:
  3325                           	opt stack 0
  3326  001E54                     _SET_D3_GREEN:
  3327                           	opt stack 29
  3328                           
  3329                           ;lab5p1.c: 153: PORTEbits.RE0 = 0;
  3330                           
  3331                           ;incstack = 0
  3332  001E54  9084               	bcf	3972,0,c	;volatile
  3333                           
  3334                           ;lab5p1.c: 154: PORTEbits.RE1 = 1;
  3335  001E56  8284               	bsf	3972,1,c	;volatile
  3336                           
  3337                           ;lab5p1.c: 155: PORTEbits.RE2 = 0;
  3338  001E58  9484               	bcf	3972,2,c	;volatile
  3339  001E5A  0012               	return		;funcret
  3340  001E5C                     __end_of_SET_D3_GREEN:
  3341                           	opt stack 0
  3342                           tblptru	equ	0xFF8
  3343                           tblptrh	equ	0xFF7
  3344                           tblptrl	equ	0xFF6
  3345                           tablat	equ	0xFF5
  3346                           prodh	equ	0xFF4
  3347                           prodl	equ	0xFF3
  3348                           postinc0	equ	0xFEE
  3349                           postdec1	equ	0xFE5
  3350                           fsr1l	equ	0xFE1
  3351                           indf2	equ	0xFDF
  3352                           postinc2	equ	0xFDE
  3353                           postdec2	equ	0xFDD
  3354                           fsr2h	equ	0xFDA
  3355                           fsr2l	equ	0xFD9
  3356                           status	equ	0xFD8
  3357                           
  3358 ;; *************** function _SET_D3_BLUE *****************
  3359 ;; Defined at:
  3360 ;;		line 165 in file "lab5p1.c"
  3361 ;; Parameters:    Size  Location     Type
  3362 ;;		None
  3363 ;; Auto vars:     Size  Location     Type
  3364 ;;		None
  3365 ;; Return value:  Size  Location     Type
  3366 ;;		None               void
  3367 ;; Registers used:
  3368 ;;		None
  3369 ;; Tracked objects:
  3370 ;;		On entry : 0/0
  3371 ;;		On exit  : 0/0
  3372 ;;		Unchanged: 0/0
  3373 ;; Data sizes:     COMRAM   BANK0   BANK1   BANK2   BANK3   BANK4   BANK5   BANK6   BANK7   BANK8   BANK9  BANK10  BANK1
      +1  BANK12  BANK13  BANK14  BANK15
  3374 ;;      Params:         0       0       0       0       0       0       0       0       0       0       0       0       
      +0       0       0       0       0
  3375 ;;      Locals:         0       0       0       0       0       0       0       0       0       0       0       0       
      +0       0       0       0       0
  3376 ;;      Temps:          0       0       0       0       0       0       0       0       0       0       0       0       
      +0       0       0       0       0
  3377 ;;      Totals:         0       0       0       0       0       0       0       0       0       0       0       0       
      +0       0       0       0       0
  3378 ;;Total ram usage:        0 bytes
  3379 ;; Hardware stack levels used:    1
  3380 ;; This function calls:
  3381 ;;		Nothing
  3382 ;; This function is called by:
  3383 ;;		_SET_RGB_D3
  3384 ;; This function uses a non-reentrant model
  3385 ;;
  3386                           
  3387                           	psect	text21
  3388  001E5C                     __ptext21:
  3389                           	opt stack 0
  3390  001E5C                     _SET_D3_BLUE:
  3391                           	opt stack 29
  3392                           
  3393                           ;lab5p1.c: 167: PORTEbits.RE0 = 0;
  3394                           
  3395                           ;incstack = 0
  3396  001E5C  9084               	bcf	3972,0,c	;volatile
  3397                           
  3398                           ;lab5p1.c: 168: PORTEbits.RE1 = 0;
  3399  001E5E  9284               	bcf	3972,1,c	;volatile
  3400                           
  3401                           ;lab5p1.c: 169: PORTEbits.RE2 = 1;
  3402  001E60  8484               	bsf	3972,2,c	;volatile
  3403  001E62  0012               	return		;funcret
  3404  001E64                     __end_of_SET_D3_BLUE:
  3405                           	opt stack 0
  3406                           tblptru	equ	0xFF8
  3407                           tblptrh	equ	0xFF7
  3408                           tblptrl	equ	0xFF6
  3409                           tablat	equ	0xFF5
  3410                           prodh	equ	0xFF4
  3411                           prodl	equ	0xFF3
  3412                           postinc0	equ	0xFEE
  3413                           postdec1	equ	0xFE5
  3414                           fsr1l	equ	0xFE1
  3415                           indf2	equ	0xFDF
  3416                           postinc2	equ	0xFDE
  3417                           postdec2	equ	0xFDD
  3418                           fsr2h	equ	0xFDA
  3419                           fsr2l	equ	0xFD9
  3420                           status	equ	0xFD8
  3421                           
  3422 ;; *************** function _SET_RGB_D2 *****************
  3423 ;; Defined at:
  3424 ;;		line 245 in file "lab5p1.c"
  3425 ;; Parameters:    Size  Location     Type
  3426 ;;  temp_f          2    0[COMRAM] int 
  3427 ;; Auto vars:     Size  Location     Type
  3428 ;;		None
  3429 ;; Return value:  Size  Location     Type
  3430 ;;		None               void
  3431 ;; Registers used:
  3432 ;;		wreg, status,2, status,0, cstack
  3433 ;; Tracked objects:
  3434 ;;		On entry : 0/0
  3435 ;;		On exit  : 0/0
  3436 ;;		Unchanged: 0/0
  3437 ;; Data sizes:     COMRAM   BANK0   BANK1   BANK2   BANK3   BANK4   BANK5   BANK6   BANK7   BANK8   BANK9  BANK10  BANK1
      +1  BANK12  BANK13  BANK14  BANK15
  3438 ;;      Params:         2       0       0       0       0       0       0       0       0       0       0       0       
      +0       0       0       0       0
  3439 ;;      Locals:         0       0       0       0       0       0       0       0       0       0       0       0       
      +0       0       0       0       0
  3440 ;;      Temps:          0       0       0       0       0       0       0       0       0       0       0       0       
      +0       0       0       0       0
  3441 ;;      Totals:         2       0       0       0       0       0       0       0       0       0       0       0       
      +0       0       0       0       0
  3442 ;;Total ram usage:        2 bytes
  3443 ;; Hardware stack levels used:    1
  3444 ;; Hardware stack levels required when called:    1
  3445 ;; This function calls:
  3446 ;;		_SET_D2_BLUE
  3447 ;;		_SET_D2_CYAN
  3448 ;;		_SET_D2_GREEN
  3449 ;;		_SET_D2_OFF
  3450 ;;		_SET_D2_PURPLE
  3451 ;;		_SET_D2_RED
  3452 ;;		_SET_D2_WHITE
  3453 ;;		_SET_D2_YELLOW
  3454 ;; This function is called by:
  3455 ;;		_main
  3456 ;; This function uses a non-reentrant model
  3457 ;;
  3458                           
  3459                           	psect	text22
  3460  001584                     __ptext22:
  3461                           	opt stack 0
  3462  001584                     _SET_RGB_D2:
  3463                           	opt stack 29
  3464                           
  3465                           ;lab5p1.c: 246: if (temp_f < 30)
  3466                           
  3467                           ;incstack = 0
  3468  001584  BE02               	btfsc	SET_RGB_D2@temp_f+1,7,c
  3469  001586  D006               	goto	l1706
  3470  001588  5002               	movf	SET_RGB_D2@temp_f+1,w,c
  3471  00158A  E107               	bnz	l1708
  3472  00158C  0E1E               	movlw	30
  3473  00158E  5C01               	subwf	SET_RGB_D2@temp_f,w,c
  3474  001590  B0D8               	btfsc	status,0,c
  3475  001592  D003               	goto	l1708
  3476  001594                     l1706:
  3477                           
  3478                           ;lab5p1.c: 247: SET_D2_OFF();
  3479  001594  EC42  F00F         	call	_SET_D2_OFF	;wreg free
  3480  001598  D075               	goto	l161
  3481  00159A                     l1708:
  3482                           
  3483                           ;lab5p1.c: 248: else if (temp_f >= 30 && temp_f <= 39)
  3484  00159A  BE02               	btfsc	SET_RGB_D2@temp_f+1,7,c
  3485  00159C  D011               	goto	l1714
  3486  00159E  5002               	movf	SET_RGB_D2@temp_f+1,w,c
  3487  0015A0  E104               	bnz	u1450
  3488  0015A2  0E1E               	movlw	30
  3489  0015A4  5C01               	subwf	SET_RGB_D2@temp_f,w,c
  3490  0015A6  A0D8               	btfss	status,0,c
  3491  0015A8  D00B               	goto	l1714
  3492  0015AA                     u1450:
  3493  0015AA  BE02               	btfsc	SET_RGB_D2@temp_f+1,7,c
  3494  0015AC  D006               	goto	l1712
  3495  0015AE  5002               	movf	SET_RGB_D2@temp_f+1,w,c
  3496  0015B0  E107               	bnz	l1714
  3497  0015B2  0E28               	movlw	40
  3498  0015B4  5C01               	subwf	SET_RGB_D2@temp_f,w,c
  3499  0015B6  B0D8               	btfsc	status,0,c
  3500  0015B8  D003               	goto	l1714
  3501  0015BA                     l1712:
  3502                           
  3503                           ;lab5p1.c: 249: SET_D2_RED();
  3504  0015BA  EC3A  F00F         	call	_SET_D2_RED	;wreg free
  3505  0015BE  D062               	goto	l161
  3506  0015C0                     l1714:
  3507                           
  3508                           ;lab5p1.c: 250: else if (temp_f >= 40 && temp_f <= 49)
  3509  0015C0  BE02               	btfsc	SET_RGB_D2@temp_f+1,7,c
  3510  0015C2  D011               	goto	l1720
  3511  0015C4  5002               	movf	SET_RGB_D2@temp_f+1,w,c
  3512  0015C6  E104               	bnz	u1470
  3513  0015C8  0E28               	movlw	40
  3514  0015CA  5C01               	subwf	SET_RGB_D2@temp_f,w,c
  3515  0015CC  A0D8               	btfss	status,0,c
  3516  0015CE  D00B               	goto	l1720
  3517  0015D0                     u1470:
  3518  0015D0  BE02               	btfsc	SET_RGB_D2@temp_f+1,7,c
  3519  0015D2  D006               	goto	l1718
  3520  0015D4  5002               	movf	SET_RGB_D2@temp_f+1,w,c
  3521  0015D6  E107               	bnz	l1720
  3522  0015D8  0E32               	movlw	50
  3523  0015DA  5C01               	subwf	SET_RGB_D2@temp_f,w,c
  3524  0015DC  B0D8               	btfsc	status,0,c
  3525  0015DE  D003               	goto	l1720
  3526  0015E0                     l1718:
  3527                           
  3528                           ;lab5p1.c: 251: SET_D2_GREEN();
  3529  0015E0  EC46  F00F         	call	_SET_D2_GREEN	;wreg free
  3530  0015E4  D04F               	goto	l161
  3531  0015E6                     l1720:
  3532                           
  3533                           ;lab5p1.c: 252: else if (temp_f >= 50 && temp_f <= 59)
  3534  0015E6  BE02               	btfsc	SET_RGB_D2@temp_f+1,7,c
  3535  0015E8  D011               	goto	l1726
  3536  0015EA  5002               	movf	SET_RGB_D2@temp_f+1,w,c
  3537  0015EC  E104               	bnz	u1490
  3538  0015EE  0E32               	movlw	50
  3539  0015F0  5C01               	subwf	SET_RGB_D2@temp_f,w,c
  3540  0015F2  A0D8               	btfss	status,0,c
  3541  0015F4  D00B               	goto	l1726
  3542  0015F6                     u1490:
  3543  0015F6  BE02               	btfsc	SET_RGB_D2@temp_f+1,7,c
  3544  0015F8  D006               	goto	l1724
  3545  0015FA  5002               	movf	SET_RGB_D2@temp_f+1,w,c
  3546  0015FC  E107               	bnz	l1726
  3547  0015FE  0E3C               	movlw	60
  3548  001600  5C01               	subwf	SET_RGB_D2@temp_f,w,c
  3549  001602  B0D8               	btfsc	status,0,c
  3550  001604  D003               	goto	l1726
  3551  001606                     l1724:
  3552                           
  3553                           ;lab5p1.c: 253: SET_D2_YELLOW();
  3554  001606  EC32  F00F         	call	_SET_D2_YELLOW	;wreg free
  3555  00160A  D03C               	goto	l161
  3556  00160C                     l1726:
  3557                           
  3558                           ;lab5p1.c: 254: else if (temp_f >= 60 && temp_f <= 69)
  3559  00160C  BE02               	btfsc	SET_RGB_D2@temp_f+1,7,c
  3560  00160E  D011               	goto	l1732
  3561  001610  5002               	movf	SET_RGB_D2@temp_f+1,w,c
  3562  001612  E104               	bnz	u1510
  3563  001614  0E3C               	movlw	60
  3564  001616  5C01               	subwf	SET_RGB_D2@temp_f,w,c
  3565  001618  A0D8               	btfss	status,0,c
  3566  00161A  D00B               	goto	l1732
  3567  00161C                     u1510:
  3568  00161C  BE02               	btfsc	SET_RGB_D2@temp_f+1,7,c
  3569  00161E  D006               	goto	l1730
  3570  001620  5002               	movf	SET_RGB_D2@temp_f+1,w,c
  3571  001622  E107               	bnz	l1732
  3572  001624  0E46               	movlw	70
  3573  001626  5C01               	subwf	SET_RGB_D2@temp_f,w,c
  3574  001628  B0D8               	btfsc	status,0,c
  3575  00162A  D003               	goto	l1732
  3576  00162C                     l1730:
  3577                           
  3578                           ;lab5p1.c: 255: SET_D2_BLUE();
  3579  00162C  EC4E  F00F         	call	_SET_D2_BLUE	;wreg free
  3580  001630  D029               	goto	l161
  3581  001632                     l1732:
  3582                           
  3583                           ;lab5p1.c: 256: else if (temp_f >= 70 && temp_f <= 74)
  3584  001632  BE02               	btfsc	SET_RGB_D2@temp_f+1,7,c
  3585  001634  D011               	goto	l1738
  3586  001636  5002               	movf	SET_RGB_D2@temp_f+1,w,c
  3587  001638  E104               	bnz	u1530
  3588  00163A  0E46               	movlw	70
  3589  00163C  5C01               	subwf	SET_RGB_D2@temp_f,w,c
  3590  00163E  A0D8               	btfss	status,0,c
  3591  001640  D00B               	goto	l1738
  3592  001642                     u1530:
  3593  001642  BE02               	btfsc	SET_RGB_D2@temp_f+1,7,c
  3594  001644  D006               	goto	l1736
  3595  001646  5002               	movf	SET_RGB_D2@temp_f+1,w,c
  3596  001648  E107               	bnz	l1738
  3597  00164A  0E4B               	movlw	75
  3598  00164C  5C01               	subwf	SET_RGB_D2@temp_f,w,c
  3599  00164E  B0D8               	btfsc	status,0,c
  3600  001650  D003               	goto	l1738
  3601  001652                     l1736:
  3602                           
  3603                           ;lab5p1.c: 257: SET_D2_PURPLE();
  3604  001652  EC3E  F00F         	call	_SET_D2_PURPLE	;wreg free
  3605  001656  D016               	goto	l161
  3606  001658                     l1738:
  3607                           
  3608                           ;lab5p1.c: 258: else if (temp_f >= 75 && temp_f <= 79)
  3609  001658  BE02               	btfsc	SET_RGB_D2@temp_f+1,7,c
  3610  00165A  D011               	goto	l1744
  3611  00165C  5002               	movf	SET_RGB_D2@temp_f+1,w,c
  3612  00165E  E104               	bnz	u1550
  3613  001660  0E4B               	movlw	75
  3614  001662  5C01               	subwf	SET_RGB_D2@temp_f,w,c
  3615  001664  A0D8               	btfss	status,0,c
  3616  001666  D00B               	goto	l1744
  3617  001668                     u1550:
  3618  001668  BE02               	btfsc	SET_RGB_D2@temp_f+1,7,c
  3619  00166A  D006               	goto	l1742
  3620  00166C  5002               	movf	SET_RGB_D2@temp_f+1,w,c
  3621  00166E  E107               	bnz	l1744
  3622  001670  0E50               	movlw	80
  3623  001672  5C01               	subwf	SET_RGB_D2@temp_f,w,c
  3624  001674  B0D8               	btfsc	status,0,c
  3625  001676  D003               	goto	l1744
  3626  001678                     l1742:
  3627                           
  3628                           ;lab5p1.c: 259: SET_D2_CYAN();
  3629  001678  EC4A  F00F         	call	_SET_D2_CYAN	;wreg free
  3630  00167C  D003               	goto	l161
  3631  00167E                     l1744:
  3632                           
  3633                           ;lab5p1.c: 260: else
  3634                           ;lab5p1.c: 261: SET_D2_WHITE();
  3635  00167E  EC36  F00F         	call	_SET_D2_WHITE	;wreg free
  3636  001682  D000               	goto	l161
  3637  001684                     l161:
  3638  001684  0012               	return		;funcret
  3639  001686                     __end_of_SET_RGB_D2:
  3640                           	opt stack 0
  3641                           tblptru	equ	0xFF8
  3642                           tblptrh	equ	0xFF7
  3643                           tblptrl	equ	0xFF6
  3644                           tablat	equ	0xFF5
  3645                           prodh	equ	0xFF4
  3646                           prodl	equ	0xFF3
  3647                           postinc0	equ	0xFEE
  3648                           postdec1	equ	0xFE5
  3649                           fsr1l	equ	0xFE1
  3650                           indf2	equ	0xFDF
  3651                           postinc2	equ	0xFDE
  3652                           postdec2	equ	0xFDD
  3653                           fsr2h	equ	0xFDA
  3654                           fsr2l	equ	0xFD9
  3655                           status	equ	0xFD8
  3656                           
  3657 ;; *************** function _SET_D2_YELLOW *****************
  3658 ;; Defined at:
  3659 ;;		line 102 in file "lab5p1.c"
  3660 ;; Parameters:    Size  Location     Type
  3661 ;;		None
  3662 ;; Auto vars:     Size  Location     Type
  3663 ;;		None
  3664 ;; Return value:  Size  Location     Type
  3665 ;;		None               void
  3666 ;; Registers used:
  3667 ;;		None
  3668 ;; Tracked objects:
  3669 ;;		On entry : 0/0
  3670 ;;		On exit  : 0/0
  3671 ;;		Unchanged: 0/0
  3672 ;; Data sizes:     COMRAM   BANK0   BANK1   BANK2   BANK3   BANK4   BANK5   BANK6   BANK7   BANK8   BANK9  BANK10  BANK1
      +1  BANK12  BANK13  BANK14  BANK15
  3673 ;;      Params:         0       0       0       0       0       0       0       0       0       0       0       0       
      +0       0       0       0       0
  3674 ;;      Locals:         0       0       0       0       0       0       0       0       0       0       0       0       
      +0       0       0       0       0
  3675 ;;      Temps:          0       0       0       0       0       0       0       0       0       0       0       0       
      +0       0       0       0       0
  3676 ;;      Totals:         0       0       0       0       0       0       0       0       0       0       0       0       
      +0       0       0       0       0
  3677 ;;Total ram usage:        0 bytes
  3678 ;; Hardware stack levels used:    1
  3679 ;; This function calls:
  3680 ;;		Nothing
  3681 ;; This function is called by:
  3682 ;;		_SET_RGB_D2
  3683 ;; This function uses a non-reentrant model
  3684 ;;
  3685                           
  3686                           	psect	text23
  3687  001E64                     __ptext23:
  3688                           	opt stack 0
  3689  001E64                     _SET_D2_YELLOW:
  3690                           	opt stack 29
  3691                           
  3692                           ;lab5p1.c: 104: PORTCbits.RC0 = 1;
  3693                           
  3694                           ;incstack = 0
  3695  001E64  8082               	bsf	3970,0,c	;volatile
  3696                           
  3697                           ;lab5p1.c: 105: PORTCbits.RC1 = 1;
  3698  001E66  8282               	bsf	3970,1,c	;volatile
  3699                           
  3700                           ;lab5p1.c: 106: PORTCbits.RC2 = 0;
  3701  001E68  9482               	bcf	3970,2,c	;volatile
  3702  001E6A  0012               	return		;funcret
  3703  001E6C                     __end_of_SET_D2_YELLOW:
  3704                           	opt stack 0
  3705                           tblptru	equ	0xFF8
  3706                           tblptrh	equ	0xFF7
  3707                           tblptrl	equ	0xFF6
  3708                           tablat	equ	0xFF5
  3709                           prodh	equ	0xFF4
  3710                           prodl	equ	0xFF3
  3711                           postinc0	equ	0xFEE
  3712                           postdec1	equ	0xFE5
  3713                           fsr1l	equ	0xFE1
  3714                           indf2	equ	0xFDF
  3715                           postinc2	equ	0xFDE
  3716                           postdec2	equ	0xFDD
  3717                           fsr2h	equ	0xFDA
  3718                           fsr2l	equ	0xFD9
  3719                           status	equ	0xFD8
  3720                           
  3721 ;; *************** function _SET_D2_WHITE *****************
  3722 ;; Defined at:
  3723 ;;		line 130 in file "lab5p1.c"
  3724 ;; Parameters:    Size  Location     Type
  3725 ;;		None
  3726 ;; Auto vars:     Size  Location     Type
  3727 ;;		None
  3728 ;; Return value:  Size  Location     Type
  3729 ;;		None               void
  3730 ;; Registers used:
  3731 ;;		None
  3732 ;; Tracked objects:
  3733 ;;		On entry : 0/0
  3734 ;;		On exit  : 0/0
  3735 ;;		Unchanged: 0/0
  3736 ;; Data sizes:     COMRAM   BANK0   BANK1   BANK2   BANK3   BANK4   BANK5   BANK6   BANK7   BANK8   BANK9  BANK10  BANK1
      +1  BANK12  BANK13  BANK14  BANK15
  3737 ;;      Params:         0       0       0       0       0       0       0       0       0       0       0       0       
      +0       0       0       0       0
  3738 ;;      Locals:         0       0       0       0       0       0       0       0       0       0       0       0       
      +0       0       0       0       0
  3739 ;;      Temps:          0       0       0       0       0       0       0       0       0       0       0       0       
      +0       0       0       0       0
  3740 ;;      Totals:         0       0       0       0       0       0       0       0       0       0       0       0       
      +0       0       0       0       0
  3741 ;;Total ram usage:        0 bytes
  3742 ;; Hardware stack levels used:    1
  3743 ;; This function calls:
  3744 ;;		Nothing
  3745 ;; This function is called by:
  3746 ;;		_SET_RGB_D2
  3747 ;; This function uses a non-reentrant model
  3748 ;;
  3749                           
  3750                           	psect	text24
  3751  001E6C                     __ptext24:
  3752                           	opt stack 0
  3753  001E6C                     _SET_D2_WHITE:
  3754                           	opt stack 29
  3755                           
  3756                           ;lab5p1.c: 132: PORTCbits.RC0 = 1;
  3757                           
  3758                           ;incstack = 0
  3759  001E6C  8082               	bsf	3970,0,c	;volatile
  3760                           
  3761                           ;lab5p1.c: 133: PORTCbits.RC1 = 1;
  3762  001E6E  8282               	bsf	3970,1,c	;volatile
  3763                           
  3764                           ;lab5p1.c: 134: PORTCbits.RC2 = 1;
  3765  001E70  8482               	bsf	3970,2,c	;volatile
  3766  001E72  0012               	return		;funcret
  3767  001E74                     __end_of_SET_D2_WHITE:
  3768                           	opt stack 0
  3769                           tblptru	equ	0xFF8
  3770                           tblptrh	equ	0xFF7
  3771                           tblptrl	equ	0xFF6
  3772                           tablat	equ	0xFF5
  3773                           prodh	equ	0xFF4
  3774                           prodl	equ	0xFF3
  3775                           postinc0	equ	0xFEE
  3776                           postdec1	equ	0xFE5
  3777                           fsr1l	equ	0xFE1
  3778                           indf2	equ	0xFDF
  3779                           postinc2	equ	0xFDE
  3780                           postdec2	equ	0xFDD
  3781                           fsr2h	equ	0xFDA
  3782                           fsr2l	equ	0xFD9
  3783                           status	equ	0xFD8
  3784                           
  3785 ;; *************** function _SET_D2_RED *****************
  3786 ;; Defined at:
  3787 ;;		line 88 in file "lab5p1.c"
  3788 ;; Parameters:    Size  Location     Type
  3789 ;;		None
  3790 ;; Auto vars:     Size  Location     Type
  3791 ;;		None
  3792 ;; Return value:  Size  Location     Type
  3793 ;;		None               void
  3794 ;; Registers used:
  3795 ;;		None
  3796 ;; Tracked objects:
  3797 ;;		On entry : 0/0
  3798 ;;		On exit  : 0/0
  3799 ;;		Unchanged: 0/0
  3800 ;; Data sizes:     COMRAM   BANK0   BANK1   BANK2   BANK3   BANK4   BANK5   BANK6   BANK7   BANK8   BANK9  BANK10  BANK1
      +1  BANK12  BANK13  BANK14  BANK15
  3801 ;;      Params:         0       0       0       0       0       0       0       0       0       0       0       0       
      +0       0       0       0       0
  3802 ;;      Locals:         0       0       0       0       0       0       0       0       0       0       0       0       
      +0       0       0       0       0
  3803 ;;      Temps:          0       0       0       0       0       0       0       0       0       0       0       0       
      +0       0       0       0       0
  3804 ;;      Totals:         0       0       0       0       0       0       0       0       0       0       0       0       
      +0       0       0       0       0
  3805 ;;Total ram usage:        0 bytes
  3806 ;; Hardware stack levels used:    1
  3807 ;; This function calls:
  3808 ;;		Nothing
  3809 ;; This function is called by:
  3810 ;;		_SET_RGB_D2
  3811 ;; This function uses a non-reentrant model
  3812 ;;
  3813                           
  3814                           	psect	text25
  3815  001E74                     __ptext25:
  3816                           	opt stack 0
  3817  001E74                     _SET_D2_RED:
  3818                           	opt stack 29
  3819                           
  3820                           ;lab5p1.c: 90: PORTCbits.RC0 = 1;
  3821                           
  3822                           ;incstack = 0
  3823  001E74  8082               	bsf	3970,0,c	;volatile
  3824                           
  3825                           ;lab5p1.c: 91: PORTCbits.RC1 = 0;
  3826  001E76  9282               	bcf	3970,1,c	;volatile
  3827                           
  3828                           ;lab5p1.c: 92: PORTCbits.RC2 = 0;
  3829  001E78  9482               	bcf	3970,2,c	;volatile
  3830  001E7A  0012               	return		;funcret
  3831  001E7C                     __end_of_SET_D2_RED:
  3832                           	opt stack 0
  3833                           tblptru	equ	0xFF8
  3834                           tblptrh	equ	0xFF7
  3835                           tblptrl	equ	0xFF6
  3836                           tablat	equ	0xFF5
  3837                           prodh	equ	0xFF4
  3838                           prodl	equ	0xFF3
  3839                           postinc0	equ	0xFEE
  3840                           postdec1	equ	0xFE5
  3841                           fsr1l	equ	0xFE1
  3842                           indf2	equ	0xFDF
  3843                           postinc2	equ	0xFDE
  3844                           postdec2	equ	0xFDD
  3845                           fsr2h	equ	0xFDA
  3846                           fsr2l	equ	0xFD9
  3847                           status	equ	0xFD8
  3848                           
  3849 ;; *************** function _SET_D2_PURPLE *****************
  3850 ;; Defined at:
  3851 ;;		line 116 in file "lab5p1.c"
  3852 ;; Parameters:    Size  Location     Type
  3853 ;;		None
  3854 ;; Auto vars:     Size  Location     Type
  3855 ;;		None
  3856 ;; Return value:  Size  Location     Type
  3857 ;;		None               void
  3858 ;; Registers used:
  3859 ;;		None
  3860 ;; Tracked objects:
  3861 ;;		On entry : 0/0
  3862 ;;		On exit  : 0/0
  3863 ;;		Unchanged: 0/0
  3864 ;; Data sizes:     COMRAM   BANK0   BANK1   BANK2   BANK3   BANK4   BANK5   BANK6   BANK7   BANK8   BANK9  BANK10  BANK1
      +1  BANK12  BANK13  BANK14  BANK15
  3865 ;;      Params:         0       0       0       0       0       0       0       0       0       0       0       0       
      +0       0       0       0       0
  3866 ;;      Locals:         0       0       0       0       0       0       0       0       0       0       0       0       
      +0       0       0       0       0
  3867 ;;      Temps:          0       0       0       0       0       0       0       0       0       0       0       0       
      +0       0       0       0       0
  3868 ;;      Totals:         0       0       0       0       0       0       0       0       0       0       0       0       
      +0       0       0       0       0
  3869 ;;Total ram usage:        0 bytes
  3870 ;; Hardware stack levels used:    1
  3871 ;; This function calls:
  3872 ;;		Nothing
  3873 ;; This function is called by:
  3874 ;;		_SET_RGB_D2
  3875 ;; This function uses a non-reentrant model
  3876 ;;
  3877                           
  3878                           	psect	text26
  3879  001E7C                     __ptext26:
  3880                           	opt stack 0
  3881  001E7C                     _SET_D2_PURPLE:
  3882                           	opt stack 29
  3883                           
  3884                           ;lab5p1.c: 118: PORTCbits.RC0 = 1;
  3885                           
  3886                           ;incstack = 0
  3887  001E7C  8082               	bsf	3970,0,c	;volatile
  3888                           
  3889                           ;lab5p1.c: 119: PORTCbits.RC1 = 0;
  3890  001E7E  9282               	bcf	3970,1,c	;volatile
  3891                           
  3892                           ;lab5p1.c: 120: PORTCbits.RC2 = 1;
  3893  001E80  8482               	bsf	3970,2,c	;volatile
  3894  001E82  0012               	return		;funcret
  3895  001E84                     __end_of_SET_D2_PURPLE:
  3896                           	opt stack 0
  3897                           tblptru	equ	0xFF8
  3898                           tblptrh	equ	0xFF7
  3899                           tblptrl	equ	0xFF6
  3900                           tablat	equ	0xFF5
  3901                           prodh	equ	0xFF4
  3902                           prodl	equ	0xFF3
  3903                           postinc0	equ	0xFEE
  3904                           postdec1	equ	0xFE5
  3905                           fsr1l	equ	0xFE1
  3906                           indf2	equ	0xFDF
  3907                           postinc2	equ	0xFDE
  3908                           postdec2	equ	0xFDD
  3909                           fsr2h	equ	0xFDA
  3910                           fsr2l	equ	0xFD9
  3911                           status	equ	0xFD8
  3912                           
  3913 ;; *************** function _SET_D2_OFF *****************
  3914 ;; Defined at:
  3915 ;;		line 81 in file "lab5p1.c"
  3916 ;; Parameters:    Size  Location     Type
  3917 ;;		None
  3918 ;; Auto vars:     Size  Location     Type
  3919 ;;		None
  3920 ;; Return value:  Size  Location     Type
  3921 ;;		None               void
  3922 ;; Registers used:
  3923 ;;		None
  3924 ;; Tracked objects:
  3925 ;;		On entry : 0/0
  3926 ;;		On exit  : 0/0
  3927 ;;		Unchanged: 0/0
  3928 ;; Data sizes:     COMRAM   BANK0   BANK1   BANK2   BANK3   BANK4   BANK5   BANK6   BANK7   BANK8   BANK9  BANK10  BANK1
      +1  BANK12  BANK13  BANK14  BANK15
  3929 ;;      Params:         0       0       0       0       0       0       0       0       0       0       0       0       
      +0       0       0       0       0
  3930 ;;      Locals:         0       0       0       0       0       0       0       0       0       0       0       0       
      +0       0       0       0       0
  3931 ;;      Temps:          0       0       0       0       0       0       0       0       0       0       0       0       
      +0       0       0       0       0
  3932 ;;      Totals:         0       0       0       0       0       0       0       0       0       0       0       0       
      +0       0       0       0       0
  3933 ;;Total ram usage:        0 bytes
  3934 ;; Hardware stack levels used:    1
  3935 ;; This function calls:
  3936 ;;		Nothing
  3937 ;; This function is called by:
  3938 ;;		_SET_RGB_D2
  3939 ;; This function uses a non-reentrant model
  3940 ;;
  3941                           
  3942                           	psect	text27
  3943  001E84                     __ptext27:
  3944                           	opt stack 0
  3945  001E84                     _SET_D2_OFF:
  3946                           	opt stack 29
  3947                           
  3948                           ;lab5p1.c: 83: PORTCbits.RC0 = 0;
  3949                           
  3950                           ;incstack = 0
  3951  001E84  9082               	bcf	3970,0,c	;volatile
  3952                           
  3953                           ;lab5p1.c: 84: PORTCbits.RC1 = 0;
  3954  001E86  9282               	bcf	3970,1,c	;volatile
  3955                           
  3956                           ;lab5p1.c: 85: PORTCbits.RC2 = 0;
  3957  001E88  9482               	bcf	3970,2,c	;volatile
  3958  001E8A  0012               	return		;funcret
  3959  001E8C                     __end_of_SET_D2_OFF:
  3960                           	opt stack 0
  3961                           tblptru	equ	0xFF8
  3962                           tblptrh	equ	0xFF7
  3963                           tblptrl	equ	0xFF6
  3964                           tablat	equ	0xFF5
  3965                           prodh	equ	0xFF4
  3966                           prodl	equ	0xFF3
  3967                           postinc0	equ	0xFEE
  3968                           postdec1	equ	0xFE5
  3969                           fsr1l	equ	0xFE1
  3970                           indf2	equ	0xFDF
  3971                           postinc2	equ	0xFDE
  3972                           postdec2	equ	0xFDD
  3973                           fsr2h	equ	0xFDA
  3974                           fsr2l	equ	0xFD9
  3975                           status	equ	0xFD8
  3976                           
  3977 ;; *************** function _SET_D2_GREEN *****************
  3978 ;; Defined at:
  3979 ;;		line 95 in file "lab5p1.c"
  3980 ;; Parameters:    Size  Location     Type
  3981 ;;		None
  3982 ;; Auto vars:     Size  Location     Type
  3983 ;;		None
  3984 ;; Return value:  Size  Location     Type
  3985 ;;		None               void
  3986 ;; Registers used:
  3987 ;;		None
  3988 ;; Tracked objects:
  3989 ;;		On entry : 0/0
  3990 ;;		On exit  : 0/0
  3991 ;;		Unchanged: 0/0
  3992 ;; Data sizes:     COMRAM   BANK0   BANK1   BANK2   BANK3   BANK4   BANK5   BANK6   BANK7   BANK8   BANK9  BANK10  BANK1
      +1  BANK12  BANK13  BANK14  BANK15
  3993 ;;      Params:         0       0       0       0       0       0       0       0       0       0       0       0       
      +0       0       0       0       0
  3994 ;;      Locals:         0       0       0       0       0       0       0       0       0       0       0       0       
      +0       0       0       0       0
  3995 ;;      Temps:          0       0       0       0       0       0       0       0       0       0       0       0       
      +0       0       0       0       0
  3996 ;;      Totals:         0       0       0       0       0       0       0       0       0       0       0       0       
      +0       0       0       0       0
  3997 ;;Total ram usage:        0 bytes
  3998 ;; Hardware stack levels used:    1
  3999 ;; This function calls:
  4000 ;;		Nothing
  4001 ;; This function is called by:
  4002 ;;		_SET_RGB_D2
  4003 ;; This function uses a non-reentrant model
  4004 ;;
  4005                           
  4006                           	psect	text28
  4007  001E8C                     __ptext28:
  4008                           	opt stack 0
  4009  001E8C                     _SET_D2_GREEN:
  4010                           	opt stack 29
  4011                           
  4012                           ;lab5p1.c: 97: PORTCbits.RC0 = 0;
  4013                           
  4014                           ;incstack = 0
  4015  001E8C  9082               	bcf	3970,0,c	;volatile
  4016                           
  4017                           ;lab5p1.c: 98: PORTCbits.RC1 = 1;
  4018  001E8E  8282               	bsf	3970,1,c	;volatile
  4019                           
  4020                           ;lab5p1.c: 99: PORTCbits.RC2 = 0;
  4021  001E90  9482               	bcf	3970,2,c	;volatile
  4022  001E92  0012               	return		;funcret
  4023  001E94                     __end_of_SET_D2_GREEN:
  4024                           	opt stack 0
  4025                           tblptru	equ	0xFF8
  4026                           tblptrh	equ	0xFF7
  4027                           tblptrl	equ	0xFF6
  4028                           tablat	equ	0xFF5
  4029                           prodh	equ	0xFF4
  4030                           prodl	equ	0xFF3
  4031                           postinc0	equ	0xFEE
  4032                           postdec1	equ	0xFE5
  4033                           fsr1l	equ	0xFE1
  4034                           indf2	equ	0xFDF
  4035                           postinc2	equ	0xFDE
  4036                           postdec2	equ	0xFDD
  4037                           fsr2h	equ	0xFDA
  4038                           fsr2l	equ	0xFD9
  4039                           status	equ	0xFD8
  4040                           
  4041 ;; *************** function _SET_D2_CYAN *****************
  4042 ;; Defined at:
  4043 ;;		line 123 in file "lab5p1.c"
  4044 ;; Parameters:    Size  Location     Type
  4045 ;;		None
  4046 ;; Auto vars:     Size  Location     Type
  4047 ;;		None
  4048 ;; Return value:  Size  Location     Type
  4049 ;;		None               void
  4050 ;; Registers used:
  4051 ;;		None
  4052 ;; Tracked objects:
  4053 ;;		On entry : 0/0
  4054 ;;		On exit  : 0/0
  4055 ;;		Unchanged: 0/0
  4056 ;; Data sizes:     COMRAM   BANK0   BANK1   BANK2   BANK3   BANK4   BANK5   BANK6   BANK7   BANK8   BANK9  BANK10  BANK1
      +1  BANK12  BANK13  BANK14  BANK15
  4057 ;;      Params:         0       0       0       0       0       0       0       0       0       0       0       0       
      +0       0       0       0       0
  4058 ;;      Locals:         0       0       0       0       0       0       0       0       0       0       0       0       
      +0       0       0       0       0
  4059 ;;      Temps:          0       0       0       0       0       0       0       0       0       0       0       0       
      +0       0       0       0       0
  4060 ;;      Totals:         0       0       0       0       0       0       0       0       0       0       0       0       
      +0       0       0       0       0
  4061 ;;Total ram usage:        0 bytes
  4062 ;; Hardware stack levels used:    1
  4063 ;; This function calls:
  4064 ;;		Nothing
  4065 ;; This function is called by:
  4066 ;;		_SET_RGB_D2
  4067 ;; This function uses a non-reentrant model
  4068 ;;
  4069                           
  4070                           	psect	text29
  4071  001E94                     __ptext29:
  4072                           	opt stack 0
  4073  001E94                     _SET_D2_CYAN:
  4074                           	opt stack 29
  4075                           
  4076                           ;lab5p1.c: 125: PORTCbits.RC0 = 0;
  4077                           
  4078                           ;incstack = 0
  4079  001E94  9082               	bcf	3970,0,c	;volatile
  4080                           
  4081                           ;lab5p1.c: 126: PORTCbits.RC1 = 1;
  4082  001E96  8282               	bsf	3970,1,c	;volatile
  4083                           
  4084                           ;lab5p1.c: 127: PORTCbits.RC2 = 1;
  4085  001E98  8482               	bsf	3970,2,c	;volatile
  4086  001E9A  0012               	return		;funcret
  4087  001E9C                     __end_of_SET_D2_CYAN:
  4088                           	opt stack 0
  4089                           tblptru	equ	0xFF8
  4090                           tblptrh	equ	0xFF7
  4091                           tblptrl	equ	0xFF6
  4092                           tablat	equ	0xFF5
  4093                           prodh	equ	0xFF4
  4094                           prodl	equ	0xFF3
  4095                           postinc0	equ	0xFEE
  4096                           postdec1	equ	0xFE5
  4097                           fsr1l	equ	0xFE1
  4098                           indf2	equ	0xFDF
  4099                           postinc2	equ	0xFDE
  4100                           postdec2	equ	0xFDD
  4101                           fsr2h	equ	0xFDA
  4102                           fsr2l	equ	0xFD9
  4103                           status	equ	0xFD8
  4104                           
  4105 ;; *************** function _SET_D2_BLUE *****************
  4106 ;; Defined at:
  4107 ;;		line 109 in file "lab5p1.c"
  4108 ;; Parameters:    Size  Location     Type
  4109 ;;		None
  4110 ;; Auto vars:     Size  Location     Type
  4111 ;;		None
  4112 ;; Return value:  Size  Location     Type
  4113 ;;		None               void
  4114 ;; Registers used:
  4115 ;;		None
  4116 ;; Tracked objects:
  4117 ;;		On entry : 0/0
  4118 ;;		On exit  : 0/0
  4119 ;;		Unchanged: 0/0
  4120 ;; Data sizes:     COMRAM   BANK0   BANK1   BANK2   BANK3   BANK4   BANK5   BANK6   BANK7   BANK8   BANK9  BANK10  BANK1
      +1  BANK12  BANK13  BANK14  BANK15
  4121 ;;      Params:         0       0       0       0       0       0       0       0       0       0       0       0       
      +0       0       0       0       0
  4122 ;;      Locals:         0       0       0       0       0       0       0       0       0       0       0       0       
      +0       0       0       0       0
  4123 ;;      Temps:          0       0       0       0       0       0       0       0       0       0       0       0       
      +0       0       0       0       0
  4124 ;;      Totals:         0       0       0       0       0       0       0       0       0       0       0       0       
      +0       0       0       0       0
  4125 ;;Total ram usage:        0 bytes
  4126 ;; Hardware stack levels used:    1
  4127 ;; This function calls:
  4128 ;;		Nothing
  4129 ;; This function is called by:
  4130 ;;		_SET_RGB_D2
  4131 ;; This function uses a non-reentrant model
  4132 ;;
  4133                           
  4134                           	psect	text30
  4135  001E9C                     __ptext30:
  4136                           	opt stack 0
  4137  001E9C                     _SET_D2_BLUE:
  4138                           	opt stack 29
  4139                           
  4140                           ;lab5p1.c: 111: PORTCbits.RC0 = 0;
  4141                           
  4142                           ;incstack = 0
  4143  001E9C  9082               	bcf	3970,0,c	;volatile
  4144                           
  4145                           ;lab5p1.c: 112: PORTCbits.RC1 = 0;
  4146  001E9E  9282               	bcf	3970,1,c	;volatile
  4147                           
  4148                           ;lab5p1.c: 113: PORTCbits.RC2 = 1;
  4149  001EA0  8482               	bsf	3970,2,c	;volatile
  4150  001EA2  0012               	return		;funcret
  4151  001EA4                     __end_of_SET_D2_BLUE:
  4152                           	opt stack 0
  4153                           tblptru	equ	0xFF8
  4154                           tblptrh	equ	0xFF7
  4155                           tblptrl	equ	0xFF6
  4156                           tablat	equ	0xFF5
  4157                           prodh	equ	0xFF4
  4158                           prodl	equ	0xFF3
  4159                           postinc0	equ	0xFEE
  4160                           postdec1	equ	0xFE5
  4161                           fsr1l	equ	0xFE1
  4162                           indf2	equ	0xFDF
  4163                           postinc2	equ	0xFDE
  4164                           postdec2	equ	0xFDD
  4165                           fsr2h	equ	0xFDA
  4166                           fsr2l	equ	0xFD9
  4167                           status	equ	0xFD8
  4168                           
  4169 ;; *************** function _SET_RGB_D1 *****************
  4170 ;; Defined at:
  4171 ;;		line 237 in file "lab5p1.c"
  4172 ;; Parameters:    Size  Location     Type
  4173 ;;  temp_f          2    8[COMRAM] int 
  4174 ;; Auto vars:     Size  Location     Type
  4175 ;;  t               2   10[COMRAM] int 
  4176 ;; Return value:  Size  Location     Type
  4177 ;;		None               void
  4178 ;; Registers used:
  4179 ;;		wreg, status,2, status,0, cstack
  4180 ;; Tracked objects:
  4181 ;;		On entry : 0/0
  4182 ;;		On exit  : 0/0
  4183 ;;		Unchanged: 0/0
  4184 ;; Data sizes:     COMRAM   BANK0   BANK1   BANK2   BANK3   BANK4   BANK5   BANK6   BANK7   BANK8   BANK9  BANK10  BANK1
      +1  BANK12  BANK13  BANK14  BANK15
  4185 ;;      Params:         2       0       0       0       0       0       0       0       0       0       0       0       
      +0       0       0       0       0
  4186 ;;      Locals:         2       0       0       0       0       0       0       0       0       0       0       0       
      +0       0       0       0       0
  4187 ;;      Temps:          0       0       0       0       0       0       0       0       0       0       0       0       
      +0       0       0       0       0
  4188 ;;      Totals:         4       0       0       0       0       0       0       0       0       0       0       0       
      +0       0       0       0       0
  4189 ;;Total ram usage:        4 bytes
  4190 ;; Hardware stack levels used:    1
  4191 ;; Hardware stack levels required when called:    1
  4192 ;; This function calls:
  4193 ;;		___awdiv
  4194 ;; This function is called by:
  4195 ;;		_main
  4196 ;; This function uses a non-reentrant model
  4197 ;;
  4198                           
  4199                           	psect	text31
  4200  001CCC                     __ptext31:
  4201                           	opt stack 0
  4202  001CCC                     _SET_RGB_D1:
  4203                           	opt stack 29
  4204                           
  4205                           ;lab5p1.c: 239: int t = temp_f / 10;
  4206                           
  4207                           ;incstack = 0
  4208  001CCC  C009  F001         	movff	SET_RGB_D1@temp_f,___awdiv@dividend
  4209  001CD0  C00A  F002         	movff	SET_RGB_D1@temp_f+1,___awdiv@dividend+1
  4210  001CD4  0E00               	movlw	0
  4211  001CD6  6E04               	movwf	___awdiv@divisor+1,c
  4212  001CD8  0E0A               	movlw	10
  4213  001CDA  6E03               	movwf	___awdiv@divisor,c
  4214  001CDC  EC06  F00D         	call	___awdiv	;wreg free
  4215  001CE0  C001  F00B         	movff	?___awdiv,SET_RGB_D1@t
  4216  001CE4  C002  F00C         	movff	?___awdiv+1,SET_RGB_D1@t+1
  4217                           
  4218                           ;lab5p1.c: 240: if(t >= 7)
  4219  001CE8  BE0C               	btfsc	SET_RGB_D1@t+1,7,c
  4220  001CEA  D00B               	goto	l1702
  4221  001CEC  500C               	movf	SET_RGB_D1@t+1,w,c
  4222  001CEE  E104               	bnz	u1430
  4223  001CF0  0E07               	movlw	7
  4224  001CF2  5C0B               	subwf	SET_RGB_D1@t,w,c
  4225  001CF4  A0D8               	btfss	status,0,c
  4226  001CF6  D005               	goto	l1702
  4227  001CF8                     u1430:
  4228                           
  4229                           ;lab5p1.c: 241: t = 7;
  4230  001CF8  0E00               	movlw	0
  4231  001CFA  6E0C               	movwf	SET_RGB_D1@t+1,c
  4232  001CFC  0E07               	movlw	7
  4233  001CFE  6E0B               	movwf	SET_RGB_D1@t,c
  4234  001D00  D000               	goto	l1702
  4235  001D02                     l1702:
  4236                           
  4237                           ;lab5p1.c: 242: PORTC = t << 3;
  4238  001D02  380B               	swapf	SET_RGB_D1@t,w,c
  4239  001D04  42E8               	rrncf	wreg,f,c
  4240  001D06  0BF8               	andlw	248
  4241  001D08  6E82               	movwf	3970,c	;volatile
  4242  001D0A  0012               	return		;funcret
  4243  001D0C                     __end_of_SET_RGB_D1:
  4244                           	opt stack 0
  4245                           tblptru	equ	0xFF8
  4246                           tblptrh	equ	0xFF7
  4247                           tblptrl	equ	0xFF6
  4248                           tablat	equ	0xFF5
  4249                           prodh	equ	0xFF4
  4250                           prodl	equ	0xFF3
  4251                           postinc0	equ	0xFEE
  4252                           wreg	equ	0xFE8
  4253                           postdec1	equ	0xFE5
  4254                           fsr1l	equ	0xFE1
  4255                           indf2	equ	0xFDF
  4256                           postinc2	equ	0xFDE
  4257                           postdec2	equ	0xFDD
  4258                           fsr2h	equ	0xFDA
  4259                           fsr2l	equ	0xFD9
  4260                           status	equ	0xFD8
  4261                           
  4262 ;; *************** function ___awdiv *****************
  4263 ;; Defined at:
  4264 ;;		line 8 in file "D:\Program Files (x86)\Microchip\xc8\v1.34\sources\common\awdiv.c"
  4265 ;; Parameters:    Size  Location     Type
  4266 ;;  dividend        2    0[COMRAM] int 
  4267 ;;  divisor         2    2[COMRAM] int 
  4268 ;; Auto vars:     Size  Location     Type
  4269 ;;  quotient        2    6[COMRAM] int 
  4270 ;;  sign            1    5[COMRAM] unsigned char 
  4271 ;;  counter         1    4[COMRAM] unsigned char 
  4272 ;; Return value:  Size  Location     Type
  4273 ;;                  2    0[COMRAM] int 
  4274 ;; Registers used:
  4275 ;;		wreg, status,2, status,0
  4276 ;; Tracked objects:
  4277 ;;		On entry : 0/0
  4278 ;;		On exit  : 0/0
  4279 ;;		Unchanged: 0/0
  4280 ;; Data sizes:     COMRAM   BANK0   BANK1   BANK2   BANK3   BANK4   BANK5   BANK6   BANK7   BANK8   BANK9  BANK10  BANK1
      +1  BANK12  BANK13  BANK14  BANK15
  4281 ;;      Params:         4       0       0       0       0       0       0       0       0       0       0       0       
      +0       0       0       0       0
  4282 ;;      Locals:         4       0       0       0       0       0       0       0       0       0       0       0       
      +0       0       0       0       0
  4283 ;;      Temps:          0       0       0       0       0       0       0       0       0       0       0       0       
      +0       0       0       0       0
  4284 ;;      Totals:         8       0       0       0       0       0       0       0       0       0       0       0       
      +0       0       0       0       0
  4285 ;;Total ram usage:        8 bytes
  4286 ;; Hardware stack levels used:    1
  4287 ;; This function calls:
  4288 ;;		Nothing
  4289 ;; This function is called by:
  4290 ;;		_SET_RGB_D1
  4291 ;;		_main
  4292 ;; This function uses a non-reentrant model
  4293 ;;
  4294                           
  4295                           	psect	text32
  4296  001A0C                     __ptext32:
  4297                           	opt stack 0
  4298  001A0C                     ___awdiv:
  4299                           	opt stack 30
  4300                           
  4301                           ;incstack = 0
  4302  001A0C  0E00               	movlw	0
  4303  001A0E  6E06               	movwf	___awdiv@sign,c
  4304  001A10  AE04               	btfss	___awdiv@divisor+1,7,c
  4305  001A12  D007               	goto	l1610
  4306  001A14  6C03               	negf	___awdiv@divisor,c
  4307  001A16  1E04               	comf	___awdiv@divisor+1,f,c
  4308  001A18  B0D8               	btfsc	status,0,c
  4309  001A1A  2A04               	incf	___awdiv@divisor+1,f,c
  4310  001A1C  0E01               	movlw	1
  4311  001A1E  6E06               	movwf	___awdiv@sign,c
  4312  001A20  D000               	goto	l1610
  4313  001A22                     l1610:
  4314  001A22  AE02               	btfss	___awdiv@dividend+1,7,c
  4315  001A24  D007               	goto	l1616
  4316  001A26  6C01               	negf	___awdiv@dividend,c
  4317  001A28  1E02               	comf	___awdiv@dividend+1,f,c
  4318  001A2A  B0D8               	btfsc	status,0,c
  4319  001A2C  2A02               	incf	___awdiv@dividend+1,f,c
  4320  001A2E  0E01               	movlw	1
  4321  001A30  1A06               	xorwf	___awdiv@sign,f,c
  4322  001A32  D000               	goto	l1616
  4323  001A34                     l1616:
  4324  001A34  0E00               	movlw	0
  4325  001A36  6E08               	movwf	___awdiv@quotient+1,c
  4326  001A38  0E00               	movlw	0
  4327  001A3A  6E07               	movwf	___awdiv@quotient,c
  4328  001A3C  5003               	movf	___awdiv@divisor,w,c
  4329  001A3E  1004               	iorwf	___awdiv@divisor+1,w,c
  4330  001A40  B4D8               	btfsc	status,2,c
  4331  001A42  D021               	goto	l1638
  4332  001A44  0E01               	movlw	1
  4333  001A46  6E05               	movwf	___awdiv@counter,c
  4334  001A48  D005               	goto	l1624
  4335  001A4A                     l1622:
  4336  001A4A  90D8               	bcf	status,0,c
  4337  001A4C  3603               	rlcf	___awdiv@divisor,f,c
  4338  001A4E  3604               	rlcf	___awdiv@divisor+1,f,c
  4339  001A50  2A05               	incf	___awdiv@counter,f,c
  4340  001A52  D000               	goto	l1624
  4341  001A54                     l1624:
  4342  001A54  BE04               	btfsc	___awdiv@divisor+1,7,c
  4343  001A56  D002               	goto	l1626
  4344  001A58  D7F8               	goto	l1622
  4345  001A5A  D000               	goto	l1626
  4346  001A5C                     l1626:
  4347  001A5C  90D8               	bcf	status,0,c
  4348  001A5E  3607               	rlcf	___awdiv@quotient,f,c
  4349  001A60  3608               	rlcf	___awdiv@quotient+1,f,c
  4350  001A62  5003               	movf	___awdiv@divisor,w,c
  4351  001A64  5C01               	subwf	___awdiv@dividend,w,c
  4352  001A66  5004               	movf	___awdiv@divisor+1,w,c
  4353  001A68  5802               	subwfb	___awdiv@dividend+1,w,c
  4354  001A6A  A0D8               	btfss	status,0,c
  4355  001A6C  D006               	goto	l1634
  4356  001A6E  5003               	movf	___awdiv@divisor,w,c
  4357  001A70  5E01               	subwf	___awdiv@dividend,f,c
  4358  001A72  5004               	movf	___awdiv@divisor+1,w,c
  4359  001A74  5A02               	subwfb	___awdiv@dividend+1,f,c
  4360  001A76  8007               	bsf	___awdiv@quotient,0,c
  4361  001A78  D000               	goto	l1634
  4362  001A7A                     l1634:
  4363  001A7A  90D8               	bcf	status,0,c
  4364  001A7C  3204               	rrcf	___awdiv@divisor+1,f,c
  4365  001A7E  3203               	rrcf	___awdiv@divisor,f,c
  4366  001A80  2E05               	decfsz	___awdiv@counter,f,c
  4367  001A82  D7EC               	goto	l1626
  4368  001A84  D000               	goto	l1638
  4369  001A86                     l1638:
  4370  001A86  5006               	movf	___awdiv@sign,w,c
  4371  001A88  B4D8               	btfsc	status,2,c
  4372  001A8A  D005               	goto	l1642
  4373  001A8C  6C07               	negf	___awdiv@quotient,c
  4374  001A8E  1E08               	comf	___awdiv@quotient+1,f,c
  4375  001A90  B0D8               	btfsc	status,0,c
  4376  001A92  2A08               	incf	___awdiv@quotient+1,f,c
  4377  001A94  D000               	goto	l1642
  4378  001A96                     l1642:
  4379  001A96  C007  F001         	movff	___awdiv@quotient,?___awdiv
  4380  001A9A  C008  F002         	movff	___awdiv@quotient+1,?___awdiv+1
  4381  001A9E  D000               	goto	l442
  4382  001AA0                     l442:
  4383  001AA0  0012               	return		;funcret
  4384  001AA2                     __end_of___awdiv:
  4385                           	opt stack 0
  4386                           tblptru	equ	0xFF8
  4387                           tblptrh	equ	0xFF7
  4388                           tblptrl	equ	0xFF6
  4389                           tablat	equ	0xFF5
  4390                           prodh	equ	0xFF4
  4391                           prodl	equ	0xFF3
  4392                           postinc0	equ	0xFEE
  4393                           wreg	equ	0xFE8
  4394                           postdec1	equ	0xFE5
  4395                           fsr1l	equ	0xFE1
  4396                           indf2	equ	0xFDF
  4397                           postinc2	equ	0xFDE
  4398                           postdec2	equ	0xFDD
  4399                           fsr2h	equ	0xFDA
  4400                           fsr2l	equ	0xFD9
  4401                           status	equ	0xFD8
  4402                           
  4403 ;; *************** function _Init_UART *****************
  4404 ;; Defined at:
  4405 ;;		line 199 in file "lab5p1.c"
  4406 ;; Parameters:    Size  Location     Type
  4407 ;;		None
  4408 ;; Auto vars:     Size  Location     Type
  4409 ;;		None
  4410 ;; Return value:  Size  Location     Type
  4411 ;;		None               void
  4412 ;; Registers used:
  4413 ;;		wreg, status,2, cstack
  4414 ;; Tracked objects:
  4415 ;;		On entry : 0/0
  4416 ;;		On exit  : 0/0
  4417 ;;		Unchanged: 0/0
  4418 ;; Data sizes:     COMRAM   BANK0   BANK1   BANK2   BANK3   BANK4   BANK5   BANK6   BANK7   BANK8   BANK9  BANK10  BANK1
      +1  BANK12  BANK13  BANK14  BANK15
  4419 ;;      Params:         0       0       0       0       0       0       0       0       0       0       0       0       
      +0       0       0       0       0
  4420 ;;      Locals:         0       0       0       0       0       0       0       0       0       0       0       0       
      +0       0       0       0       0
  4421 ;;      Temps:          0       0       0       0       0       0       0       0       0       0       0       0       
      +0       0       0       0       0
  4422 ;;      Totals:         0       0       0       0       0       0       0       0       0       0       0       0       
      +0       0       0       0       0
  4423 ;;Total ram usage:        0 bytes
  4424 ;; Hardware stack levels used:    1
  4425 ;; Hardware stack levels required when called:    1
  4426 ;; This function calls:
  4427 ;;		_OpenUSART
  4428 ;; This function is called by:
  4429 ;;		_main
  4430 ;; This function uses a non-reentrant model
  4431 ;;
  4432                           
  4433                           	psect	text33
  4434  001DF6                     __ptext33:
  4435                           	opt stack 0
  4436  001DF6                     _Init_UART:
  4437                           	opt stack 29
  4438                           
  4439                           ;lab5p1.c: 201: OpenUSART (0b01111111 & 0b10111111 &
  4440                           ;lab5p1.c: 202: 0b11111110 & 0b11111101 & 0b11111111 &
  4441                           ;lab5p1.c: 203: 0b11111111, 25);
  4442                           
  4443                           ;incstack = 0
  4444  001DF6  0E00               	movlw	0
  4445  001DF8  6E02               	movwf	OpenUSART@spbrg+1,c
  4446  001DFA  0E19               	movlw	25
  4447  001DFC  6E01               	movwf	OpenUSART@spbrg,c
  4448  001DFE  0E3C               	movlw	60
  4449  001E00  ECDA  F00D         	call	_OpenUSART
  4450                           
  4451                           ;lab5p1.c: 204: OSCCON = 0x60;
  4452  001E04  0E60               	movlw	96
  4453  001E06  6ED3               	movwf	4051,c	;volatile
  4454  001E08  0012               	return		;funcret
  4455  001E0A                     __end_of_Init_UART:
  4456                           	opt stack 0
  4457                           tblptru	equ	0xFF8
  4458                           tblptrh	equ	0xFF7
  4459                           tblptrl	equ	0xFF6
  4460                           tablat	equ	0xFF5
  4461                           prodh	equ	0xFF4
  4462                           prodl	equ	0xFF3
  4463                           postinc0	equ	0xFEE
  4464                           wreg	equ	0xFE8
  4465                           postdec1	equ	0xFE5
  4466                           fsr1l	equ	0xFE1
  4467                           indf2	equ	0xFDF
  4468                           postinc2	equ	0xFDE
  4469                           postdec2	equ	0xFDD
  4470                           fsr2h	equ	0xFDA
  4471                           fsr2l	equ	0xFD9
  4472                           status	equ	0xFD8
  4473                           
  4474 ;; *************** function _OpenUSART *****************
  4475 ;; Defined at:
  4476 ;;		line 73 in file "D:\Program Files (x86)\Microchip\xc8\v1.34\sources\pic18\plib\USART\uopen.c"
  4477 ;; Parameters:    Size  Location     Type
  4478 ;;  config          1    wreg     unsigned char 
  4479 ;;  spbrg           2    0[COMRAM] unsigned int 
  4480 ;; Auto vars:     Size  Location     Type
  4481 ;;  config          1    2[COMRAM] unsigned char 
  4482 ;; Return value:  Size  Location     Type
  4483 ;;		None               void
  4484 ;; Registers used:
  4485 ;;		wreg, status,2
  4486 ;; Tracked objects:
  4487 ;;		On entry : 0/0
  4488 ;;		On exit  : 0/0
  4489 ;;		Unchanged: 0/0
  4490 ;; Data sizes:     COMRAM   BANK0   BANK1   BANK2   BANK3   BANK4   BANK5   BANK6   BANK7   BANK8   BANK9  BANK10  BANK1
      +1  BANK12  BANK13  BANK14  BANK15
  4491 ;;      Params:         2       0       0       0       0       0       0       0       0       0       0       0       
      +0       0       0       0       0
  4492 ;;      Locals:         1       0       0       0       0       0       0       0       0       0       0       0       
      +0       0       0       0       0
  4493 ;;      Temps:          0       0       0       0       0       0       0       0       0       0       0       0       
      +0       0       0       0       0
  4494 ;;      Totals:         3       0       0       0       0       0       0       0       0       0       0       0       
      +0       0       0       0       0
  4495 ;;Total ram usage:        3 bytes
  4496 ;; Hardware stack levels used:    1
  4497 ;; This function calls:
  4498 ;;		Nothing
  4499 ;; This function is called by:
  4500 ;;		_Init_UART
  4501 ;; This function uses a non-reentrant model
  4502 ;;
  4503                           
  4504                           	psect	text34
  4505  001BB4                     __ptext34:
  4506                           	opt stack 0
  4507  001BB4                     _OpenUSART:
  4508                           	opt stack 29
  4509                           
  4510                           ;incstack = 0
  4511                           ;OpenUSART@config stored from wreg
  4512  001BB4  6E03               	movwf	OpenUSART@config,c
  4513  001BB6  0E00               	movlw	0
  4514  001BB8  6EAC               	movwf	4012,c	;volatile
  4515  001BBA  0E00               	movlw	0
  4516  001BBC  6EAB               	movwf	4011,c	;volatile
  4517  001BBE  A003               	btfss	OpenUSART@config,0,c
  4518  001BC0  D002               	goto	l1522
  4519  001BC2  88AC               	bsf	4012,4,c	;volatile
  4520  001BC4  D000               	goto	l1522
  4521  001BC6                     l1522:
  4522  001BC6  A203               	btfss	OpenUSART@config,1,c
  4523  001BC8  D003               	goto	l1526
  4524  001BCA  8CAC               	bsf	4012,6,c	;volatile
  4525  001BCC  8CAB               	bsf	4011,6,c	;volatile
  4526  001BCE  D000               	goto	l1526
  4527  001BD0                     l1526:
  4528  001BD0  A403               	btfss	OpenUSART@config,2,c
  4529  001BD2  D002               	goto	l1530
  4530  001BD4  8EAC               	bsf	4012,7,c	;volatile
  4531  001BD6  D000               	goto	l1530
  4532  001BD8                     l1530:
  4533  001BD8  A603               	btfss	OpenUSART@config,3,c
  4534  001BDA  D002               	goto	l237
  4535  001BDC  88AB               	bsf	4011,4,c	;volatile
  4536  001BDE  D002               	goto	l1534
  4537  001BE0                     l237:
  4538  001BE0  8AAB               	bsf	4011,5,c	;volatile
  4539  001BE2  D000               	goto	l1534
  4540  001BE4                     l1534:
  4541  001BE4  B803               	btfsc	OpenUSART@config,4,c
  4542  001BE6  84AC               	bsf	4012,2,c	;volatile
  4543  001BE8  989E               	bcf	3998,4,c	;volatile
  4544  001BEA  AA03               	btfss	OpenUSART@config,5,c
  4545  001BEC  D002               	goto	l1542
  4546  001BEE  86AB               	bsf	4011,3,c	;volatile
  4547  001BF0  D000               	goto	l1542
  4548  001BF2                     l1542:
  4549  001BF2  AC03               	btfss	OpenUSART@config,6,c
  4550  001BF4  D002               	goto	l241
  4551  001BF6  8A9D               	bsf	3997,5,c	;volatile
  4552  001BF8  D001               	goto	l242
  4553  001BFA                     l241:
  4554  001BFA  9A9D               	bcf	3997,5,c	;volatile
  4555  001BFC                     l242:
  4556  001BFC  9A9E               	bcf	3998,5,c	;volatile
  4557  001BFE  AE03               	btfss	OpenUSART@config,7,c
  4558  001C00  D002               	goto	l243
  4559  001C02  889D               	bsf	3997,4,c	;volatile
  4560  001C04  D001               	goto	l244
  4561  001C06                     l243:
  4562  001C06  989D               	bcf	3997,4,c	;volatile
  4563  001C08                     l244:
  4564  001C08  C001  FFAF         	movff	OpenUSART@spbrg,4015	;volatile
  4565  001C0C  5002               	movf	OpenUSART@spbrg+1,w,c
  4566  001C0E  6EB0               	movwf	4016,c	;volatile
  4567  001C10  8AAC               	bsf	4012,5,c	;volatile
  4568  001C12  8EAB               	bsf	4011,7,c	;volatile
  4569  001C14  9C94               	bcf	3988,6,c	;volatile
  4570  001C16  8E94               	bsf	3988,7,c	;volatile
  4571  001C18  B8AC               	btfsc	4012,4,c	;volatile
  4572  001C1A  BEAC               	btfsc	4012,7,c	;volatile
  4573  001C1C  D002               	goto	l246
  4574  001C1E  8C94               	bsf	3988,6,c	;volatile
  4575  001C20  D000               	goto	l246
  4576  001C22                     l246:
  4577  001C22  0012               	return		;funcret
  4578  001C24                     __end_of_OpenUSART:
  4579                           	opt stack 0
  4580                           tblptru	equ	0xFF8
  4581                           tblptrh	equ	0xFF7
  4582                           tblptrl	equ	0xFF6
  4583                           tablat	equ	0xFF5
  4584                           prodh	equ	0xFF4
  4585                           prodl	equ	0xFF3
  4586                           postinc0	equ	0xFEE
  4587                           wreg	equ	0xFE8
  4588                           postdec1	equ	0xFE5
  4589                           fsr1l	equ	0xFE1
  4590                           indf2	equ	0xFDF
  4591                           postinc2	equ	0xFDE
  4592                           postdec2	equ	0xFDD
  4593                           fsr2h	equ	0xFDA
  4594                           fsr2l	equ	0xFD9
  4595                           status	equ	0xFD8
  4596                           
  4597 ;; *************** function _Init_TRIS *****************
  4598 ;; Defined at:
  4599 ;;		line 214 in file "lab5p1.c"
  4600 ;; Parameters:    Size  Location     Type
  4601 ;;		None
  4602 ;; Auto vars:     Size  Location     Type
  4603 ;;		None
  4604 ;; Return value:  Size  Location     Type
  4605 ;;		None               void
  4606 ;; Registers used:
  4607 ;;		wreg, status,2
  4608 ;; Tracked objects:
  4609 ;;		On entry : 0/0
  4610 ;;		On exit  : 0/0
  4611 ;;		Unchanged: 0/0
  4612 ;; Data sizes:     COMRAM   BANK0   BANK1   BANK2   BANK3   BANK4   BANK5   BANK6   BANK7   BANK8   BANK9  BANK10  BANK1
      +1  BANK12  BANK13  BANK14  BANK15
  4613 ;;      Params:         0       0       0       0       0       0       0       0       0       0       0       0       
      +0       0       0       0       0
  4614 ;;      Locals:         0       0       0       0       0       0       0       0       0       0       0       0       
      +0       0       0       0       0
  4615 ;;      Temps:          0       0       0       0       0       0       0       0       0       0       0       0       
      +0       0       0       0       0
  4616 ;;      Totals:         0       0       0       0       0       0       0       0       0       0       0       0       
      +0       0       0       0       0
  4617 ;;Total ram usage:        0 bytes
  4618 ;; Hardware stack levels used:    1
  4619 ;; This function calls:
  4620 ;;		Nothing
  4621 ;; This function is called by:
  4622 ;;		_main
  4623 ;; This function uses a non-reentrant model
  4624 ;;
  4625                           
  4626                           	psect	text35
  4627  001DE0                     __ptext35:
  4628                           	opt stack 0
  4629  001DE0                     _Init_TRIS:
  4630                           	opt stack 30
  4631                           
  4632                           ;lab5p1.c: 216: TRISA = 0x0F;
  4633                           
  4634                           ;incstack = 0
  4635  001DE0  0E0F               	movlw	15
  4636  001DE2  6E92               	movwf	3986,c	;volatile
  4637                           
  4638                           ;lab5p1.c: 217: TRISB = 0x00;
  4639  001DE4  0E00               	movlw	0
  4640  001DE6  6E93               	movwf	3987,c	;volatile
  4641                           
  4642                           ;lab5p1.c: 218: TRISC = 0x00;
  4643  001DE8  0E00               	movlw	0
  4644  001DEA  6E94               	movwf	3988,c	;volatile
  4645                           
  4646                           ;lab5p1.c: 219: TRISD = 0x00;
  4647  001DEC  0E00               	movlw	0
  4648  001DEE  6E95               	movwf	3989,c	;volatile
  4649                           
  4650                           ;lab5p1.c: 220: TRISE = 0x00;
  4651  001DF0  0E00               	movlw	0
  4652  001DF2  6E96               	movwf	3990,c	;volatile
  4653  001DF4  0012               	return		;funcret
  4654  001DF6                     __end_of_Init_TRIS:
  4655                           	opt stack 0
  4656                           tblptru	equ	0xFF8
  4657                           tblptrh	equ	0xFF7
  4658                           tblptrl	equ	0xFF6
  4659                           tablat	equ	0xFF5
  4660                           prodh	equ	0xFF4
  4661                           prodl	equ	0xFF3
  4662                           postinc0	equ	0xFEE
  4663                           wreg	equ	0xFE8
  4664                           postdec1	equ	0xFE5
  4665                           fsr1l	equ	0xFE1
  4666                           indf2	equ	0xFDF
  4667                           postinc2	equ	0xFDE
  4668                           postdec2	equ	0xFDD
  4669                           fsr2h	equ	0xFDA
  4670                           fsr2l	equ	0xFD9
  4671                           status	equ	0xFD8
  4672                           
  4673 ;; *************** function _Init_ADC *****************
  4674 ;; Defined at:
  4675 ;;		line 207 in file "lab5p1.c"
  4676 ;; Parameters:    Size  Location     Type
  4677 ;;		None
  4678 ;; Auto vars:     Size  Location     Type
  4679 ;;		None
  4680 ;; Return value:  Size  Location     Type
  4681 ;;		None               void
  4682 ;; Registers used:
  4683 ;;		wreg, status,2
  4684 ;; Tracked objects:
  4685 ;;		On entry : 0/0
  4686 ;;		On exit  : 0/0
  4687 ;;		Unchanged: 0/0
  4688 ;; Data sizes:     COMRAM   BANK0   BANK1   BANK2   BANK3   BANK4   BANK5   BANK6   BANK7   BANK8   BANK9  BANK10  BANK1
      +1  BANK12  BANK13  BANK14  BANK15
  4689 ;;      Params:         0       0       0       0       0       0       0       0       0       0       0       0       
      +0       0       0       0       0
  4690 ;;      Locals:         0       0       0       0       0       0       0       0       0       0       0       0       
      +0       0       0       0       0
  4691 ;;      Temps:          0       0       0       0       0       0       0       0       0       0       0       0       
      +0       0       0       0       0
  4692 ;;      Totals:         0       0       0       0       0       0       0       0       0       0       0       0       
      +0       0       0       0       0
  4693 ;;Total ram usage:        0 bytes
  4694 ;; Hardware stack levels used:    1
  4695 ;; This function calls:
  4696 ;;		Nothing
  4697 ;; This function is called by:
  4698 ;;		_main
  4699 ;; This function uses a non-reentrant model
  4700 ;;
  4701                           
  4702                           	psect	text36
  4703  001E18                     __ptext36:
  4704                           	opt stack 0
  4705  001E18                     _Init_ADC:
  4706                           	opt stack 30
  4707                           
  4708                           ;lab5p1.c: 209: ADCON0=0x01*4+1;
  4709                           
  4710                           ;incstack = 0
  4711  001E18  0E05               	movlw	5
  4712  001E1A  6EC2               	movwf	4034,c	;volatile
  4713                           
  4714                           ;lab5p1.c: 210: ADCON1=0x1B;
  4715  001E1C  0E1B               	movlw	27
  4716  001E1E  6EC1               	movwf	4033,c	;volatile
  4717                           
  4718                           ;lab5p1.c: 211: ADCON2=0xA9;
  4719  001E20  0EA9               	movlw	169
  4720  001E22  6EC0               	movwf	4032,c	;volatile
  4721  001E24  0012               	return		;funcret
  4722  001E26                     __end_of_Init_ADC:
  4723                           	opt stack 0
  4724                           tblptru	equ	0xFF8
  4725                           tblptrh	equ	0xFF7
  4726                           tblptrl	equ	0xFF6
  4727                           tablat	equ	0xFF5
  4728                           prodh	equ	0xFF4
  4729                           prodl	equ	0xFF3
  4730                           postinc0	equ	0xFEE
  4731                           wreg	equ	0xFE8
  4732                           postdec1	equ	0xFE5
  4733                           fsr1l	equ	0xFE1
  4734                           indf2	equ	0xFDF
  4735                           postinc2	equ	0xFDE
  4736                           postdec2	equ	0xFDD
  4737                           fsr2h	equ	0xFDA
  4738                           fsr2l	equ	0xFD9
  4739                           status	equ	0xFD8
  4740                           tblptru	equ	0xFF8
  4741                           tblptrh	equ	0xFF7
  4742                           tblptrl	equ	0xFF6
  4743                           tablat	equ	0xFF5
  4744                           prodh	equ	0xFF4
  4745                           prodl	equ	0xFF3
  4746                           postinc0	equ	0xFEE
  4747                           wreg	equ	0xFE8
  4748                           postdec1	equ	0xFE5
  4749                           fsr1l	equ	0xFE1
  4750                           indf2	equ	0xFDF
  4751                           postinc2	equ	0xFDE
  4752                           postdec2	equ	0xFDD
  4753                           fsr2h	equ	0xFDA
  4754                           fsr2l	equ	0xFD9
  4755                           status	equ	0xFD8
  4756                           
  4757                           	psect	rparam
  4758  0000                     tblptru	equ	0xFF8
  4759                           tblptrh	equ	0xFF7
  4760                           tblptrl	equ	0xFF6
  4761                           tablat	equ	0xFF5
  4762                           prodh	equ	0xFF4
  4763                           prodl	equ	0xFF3
  4764                           postinc0	equ	0xFEE
  4765                           wreg	equ	0xFE8
  4766                           postdec1	equ	0xFE5
  4767                           fsr1l	equ	0xFE1
  4768                           indf2	equ	0xFDF
  4769                           postinc2	equ	0xFDE
  4770                           postdec2	equ	0xFDD
  4771                           fsr2h	equ	0xFDA
  4772                           fsr2l	equ	0xFD9
  4773                           status	equ	0xFD8


Data Sizes:
    Strings     89
    Constant    10
    Data        10
    BSS         0
    Persistent  0
    Stack       0

Auto Spaces:
    Space          Size  Autos    Used
    COMRAM          127     75      85
    BANK0           128      0       0
    BANK1           256      0       0
    BANK2           256      0       0
    BANK3           256      0       0
    BANK4           256      0       0
    BANK5           256      0       0
    BANK6           256      0       0
    BANK7           256      0       0
    BANK8           256      0       0
    BANK9           256      0       0
    BANK10          256      0       0
    BANK11          256      0       0
    BANK12          256      0       0
    BANK13          256      0       0
    BANK14          256      0       0
    BANK15          128      0       0

Pointer List with Targets:

    printf@f	PTR const unsigned char  size(2) Largest target is 31
		 -> STR_4(CODE[14]), STR_3(CODE[26]), STR_2(CODE[18]), STR_1(CODE[31]), 

    printf@ap	PTR void [1] size(2) Largest target is 2
		 -> ?_printf(COMRAM[2]), 


Critical Paths under _main in COMRAM

    _main->___ftdiv
    _printf->___lwmod
    ___lwmod->___lwdiv
    ___ftmul->___awtoft
    ___ftdiv->___ftadd
    ___ftadd->___ftmul
    ___awtoft->___ftpack
    _SET_RGB_D1->___awdiv
    _Init_UART->_OpenUSART

Critical Paths under _main in BANK0

    None.

Critical Paths under _main in BANK1

    None.

Critical Paths under _main in BANK2

    None.

Critical Paths under _main in BANK3

    None.

Critical Paths under _main in BANK4

    None.

Critical Paths under _main in BANK5

    None.

Critical Paths under _main in BANK6

    None.

Critical Paths under _main in BANK7

    None.

Critical Paths under _main in BANK8

    None.

Critical Paths under _main in BANK9

    None.

Critical Paths under _main in BANK10

    None.

Critical Paths under _main in BANK11

    None.

Critical Paths under _main in BANK12

    None.

Critical Paths under _main in BANK13

    None.

Critical Paths under _main in BANK14

    None.

Critical Paths under _main in BANK15

    None.

Call Graph Tables:

 ---------------------------------------------------------------------------------
 (Depth) Function   	        Calls       Base Space   Used Autos Params    Refs
 ---------------------------------------------------------------------------------
 (0) _main                                                21    21      0   13666
                                             54 COMRAM    21    21      0
                           _Init_ADC
                          _Init_TRIS
                          _Init_UART
                         _SET_RGB_D1
                         _SET_RGB_D2
                         _SET_RGB_D3
                         _Set_ADCON0
                         _WAIT_1_SEC
                            ___awdiv
                            ___awmod
                           ___awtoft
                            ___ftadd
                            ___ftdiv
                            ___ftmul
                            ___ftneg
                            ___fttol
                       _get_full_ADC
                             _printf
 ---------------------------------------------------------------------------------
 (1) _printf                                              22    17      5    1146
                                             12 COMRAM    13     8      5
                            ___lwdiv
                            ___lwmod
                              _putch
 ---------------------------------------------------------------------------------
 (2) _putch                                                1     1      0      15
                                              0 COMRAM     1     1      0
 ---------------------------------------------------------------------------------
 (2) ___lwmod                                              5     1      4     265
                                              7 COMRAM     5     1      4
                            ___lwdiv (ARG)
 ---------------------------------------------------------------------------------
 (2) ___lwdiv                                              7     3      4     268
                                              0 COMRAM     7     3      4
 ---------------------------------------------------------------------------------
 (1) _get_full_ADC                                         6     4      2      23
                                              0 COMRAM     6     4      2
 ---------------------------------------------------------------------------------
 (1) ___fttol                                             15    11      4     358
                                              0 COMRAM    15    11      4
 ---------------------------------------------------------------------------------
 (1) ___ftneg                                              3     0      3      98
                                              0 COMRAM     3     0      3
 ---------------------------------------------------------------------------------
 (1) ___ftmul                                             15     9      6    2325
                                             12 COMRAM    15     9      6
                           ___awtoft (ARG)
                           ___ftpack
 ---------------------------------------------------------------------------------
 (1) ___ftdiv                                             15     9      6    2173
                                             39 COMRAM    15     9      6
                            ___ftadd (ARG)
                            ___ftneg (ARG)
                           ___ftpack
 ---------------------------------------------------------------------------------
 (1) ___ftadd                                             12     6      6    2919
                                             27 COMRAM    12     6      6
                            ___ftmul (ARG)
                            ___ftneg (ARG)
                           ___ftpack
 ---------------------------------------------------------------------------------
 (1) ___awtoft                                             4     1      3    1851
                                              8 COMRAM     4     1      3
                           ___ftpack
 ---------------------------------------------------------------------------------
 (2) ___ftpack                                             8     3      5    1707
                                              0 COMRAM     8     3      5
 ---------------------------------------------------------------------------------
 (1) ___awmod                                              6     2      4     402
                                              0 COMRAM     6     2      4
 ---------------------------------------------------------------------------------
 (1) _WAIT_1_SEC                                           2     2      0      30
                                              0 COMRAM     2     2      0
 ---------------------------------------------------------------------------------
 (1) _Set_ADCON0                                           1     1      0      15
                                              0 COMRAM     1     1      0
 ---------------------------------------------------------------------------------
 (1) _SET_RGB_D3                                           2     0      2     207
                                              0 COMRAM     2     0      2
                        _SET_D3_BLUE
                       _SET_D3_GREEN
                         _SET_D3_OFF
                         _SET_D3_RED
                       _SET_D3_WHITE
 ---------------------------------------------------------------------------------
 (2) _SET_D3_WHITE                                         0     0      0       0
 ---------------------------------------------------------------------------------
 (2) _SET_D3_RED                                           0     0      0       0
 ---------------------------------------------------------------------------------
 (2) _SET_D3_OFF                                           0     0      0       0
 ---------------------------------------------------------------------------------
 (2) _SET_D3_GREEN                                         0     0      0       0
 ---------------------------------------------------------------------------------
 (2) _SET_D3_BLUE                                          0     0      0       0
 ---------------------------------------------------------------------------------
 (1) _SET_RGB_D2                                           2     0      2     339
                                              0 COMRAM     2     0      2
                        _SET_D2_BLUE
                        _SET_D2_CYAN
                       _SET_D2_GREEN
                         _SET_D2_OFF
                      _SET_D2_PURPLE
                         _SET_D2_RED
                       _SET_D2_WHITE
                      _SET_D2_YELLOW
 ---------------------------------------------------------------------------------
 (2) _SET_D2_YELLOW                                        0     0      0       0
 ---------------------------------------------------------------------------------
 (2) _SET_D2_WHITE                                         0     0      0       0
 ---------------------------------------------------------------------------------
 (2) _SET_D2_RED                                           0     0      0       0
 ---------------------------------------------------------------------------------
 (2) _SET_D2_PURPLE                                        0     0      0       0
 ---------------------------------------------------------------------------------
 (2) _SET_D2_OFF                                           0     0      0       0
 ---------------------------------------------------------------------------------
 (2) _SET_D2_GREEN                                         0     0      0       0
 ---------------------------------------------------------------------------------
 (2) _SET_D2_CYAN                                          0     0      0       0
 ---------------------------------------------------------------------------------
 (2) _SET_D2_BLUE                                          0     0      0       0
 ---------------------------------------------------------------------------------
 (1) _SET_RGB_D1                                           4     2      2     633
                                              8 COMRAM     4     2      2
                            ___awdiv
 ---------------------------------------------------------------------------------
 (1) ___awdiv                                              8     4      4     512
                                              0 COMRAM     8     4      4
 ---------------------------------------------------------------------------------
 (1) _Init_UART                                            0     0      0     273
                          _OpenUSART
 ---------------------------------------------------------------------------------
 (2) _OpenUSART                                            3     1      2     273
                                              0 COMRAM     3     1      2
 ---------------------------------------------------------------------------------
 (1) _Init_TRIS                                            0     0      0       0
 ---------------------------------------------------------------------------------
 (1) _Init_ADC                                             0     0      0       0
 ---------------------------------------------------------------------------------
 Estimated maximum stack depth 2
 ---------------------------------------------------------------------------------

 Call Graph Graphs:

 _main (ROOT)
   _Init_ADC
   _Init_TRIS
   _Init_UART
     _OpenUSART
   _SET_RGB_D1
     ___awdiv
   _SET_RGB_D2
     _SET_D2_BLUE
     _SET_D2_CYAN
     _SET_D2_GREEN
     _SET_D2_OFF
     _SET_D2_PURPLE
     _SET_D2_RED
     _SET_D2_WHITE
     _SET_D2_YELLOW
   _SET_RGB_D3
     _SET_D3_BLUE
     _SET_D3_GREEN
     _SET_D3_OFF
     _SET_D3_RED
     _SET_D3_WHITE
   _Set_ADCON0
   _WAIT_1_SEC
   ___awdiv
   ___awmod
   ___awtoft
     ___ftpack
   ___ftadd
     ___ftmul (ARG)
       ___awtoft (ARG)
         ___ftpack
       ___ftpack (ARG)
     ___ftneg (ARG)
     ___ftpack (ARG)
   ___ftdiv
     ___ftadd (ARG)
       ___ftmul (ARG)
         ___awtoft (ARG)
           ___ftpack
         ___ftpack (ARG)
       ___ftneg (ARG)
       ___ftpack (ARG)
     ___ftneg (ARG)
     ___ftpack (ARG)
   ___ftmul
     ___awtoft (ARG)
       ___ftpack
     ___ftpack (ARG)
   ___ftneg
   ___fttol
   _get_full_ADC
   _printf
     ___lwdiv
     ___lwmod
       ___lwdiv (ARG)
     _putch

 Address spaces:
Name               Size   Autos  Total    Cost      Usage
BIGRAM             F7F      0       0      37        0.0%
EEDATA             400      0       0       0        0.0%
BITBANK14          100      0       0      32        0.0%
BANK14             100      0       0      33        0.0%
BITBANK13          100      0       0      30        0.0%
BANK13             100      0       0      31        0.0%
BITBANK12          100      0       0      28        0.0%
BANK12             100      0       0      29        0.0%
BITBANK11          100      0       0      26        0.0%
BANK11             100      0       0      27        0.0%
BITBANK10          100      0       0      24        0.0%
BANK10             100      0       0      25        0.0%
BITBANK9           100      0       0      22        0.0%
BANK9              100      0       0      23        0.0%
BITBANK8           100      0       0      20        0.0%
BANK8              100      0       0      21        0.0%
BITBANK7           100      0       0      18        0.0%
BANK7              100      0       0      19        0.0%
BITBANK6           100      0       0      16        0.0%
BANK6              100      0       0      17        0.0%
BITBANK5           100      0       0      14        0.0%
BANK5              100      0       0      15        0.0%
BITBANK4           100      0       0      12        0.0%
BANK4              100      0       0      13        0.0%
BITBANK3           100      0       0      10        0.0%
BANK3              100      0       0      11        0.0%
BITBANK2           100      0       0       8        0.0%
BANK2              100      0       0       9        0.0%
BITBANK1           100      0       0       6        0.0%
BANK1              100      0       0       7        0.0%
BITBANK15           80      0       0      35        0.0%
BANK15              80      0       0      36        0.0%
BITBANK0            80      0       0       4        0.0%
BANK0               80      0       0       5        0.0%
BITCOMRAM           7F      0       0       0        0.0%
COMRAM              7F     4B      55       1       66.9%
BITSFR               0      0       0      40        0.0%
SFR                  0      0       0      40        0.0%
STACK                0      0       0       2        0.0%
NULL                 0      0       0       0        0.0%
ABS                  0      0      55      34        0.0%
DATA                 0      0      55       3        0.0%
CODE                 0      0       0       0        0.0%


Microchip Technology PIC18 Macro Assembler V1.34 build -361300703 
Symbol Table                                                                                   Thu Sep 26 18:46:56 2024

           ___awdiv@sign 0006             ___ftadd@exp1 0027             ___ftadd@exp2 0026  
           ___ftadd@sign 0025                      l140 1D96                      l213 1582  
                    l119 1E0E                      l241 1BFA                      l161 1684  
                    l137 1D76                      l242 1BFC                      l243 1C06  
                    l244 1C08                      l172 1B30                      l237 1BE0  
                    l246 1C22                      l177 1DDE                      l601 12F0  
                    l442 1AA0                      l612 13B2                      l621 13CE  
                    l455 1BB2                      l632 1910                      l467 1D46  
                    l644 177C                      l557 1A0A                      l629 1944  
                    l654 1DAE                      l568 19E2                      l665 1862  
                    l597 12C6                      l598 1444                      l767 1C76  
                    l777 1CC2             ___awmod@sign 0006                      prod 000FF3  
                    wreg 000FE8             __CFG_LVP$OFF 000000             ___ftdiv@cntr 0031  
           ___ftdiv@sign 0036             __CFG_WDT$OFF 000000                     l2000 1B64  
                   l2002 1B6E                     l1132 1DD8                     l2004 1B76  
                   l2012 1B98                     l1128 1DC4                     l2016 1BA8  
                   l2008 1B8C                     l2042 179C                     l2028 1D22  
                   l2060 17F6                     l2070 1820                     l2072 182E  
                   l2064 1806                     l1530 1BD8                     l1522 1BC6  
                   l1610 1A22                     l2066 180C                     l2074 1838  
                   l2084 1074                     l1542 1BF2                     l1534 1BE4  
                   l1526 1BD0                     l1622 1A4A                     l1702 1D02  
                   l2078 1850                     l1624 1A54                     l1616 1A34  
                   l1720 15E6                     l1712 15BA                     l1642 1A96  
                   l1634 1A7A                     l1626 1A5C                     l1730 162C  
                   l1714 15C0                     l1706 1594                     l1570 1956  
                   l1810 150A                     l1802 14F2                     l1732 1632  
                   l1724 1606                     l1708 159A                     l1652 1C3A  
                   l1812 1510                     l1638 1A86                     l1742 1678  
                   l1726 160C                     l1718 15E0                     l1750 1AB8  
                   l1582 19AA                     l1574 1966                     l1902 18AA  
                   l1654 1C44                     l1806 14F6                     l1744 167E  
                   l1736 1652                     l1760 1AFE                     l1592 19EA  
                   l1584 19CA                     l1576 1972                     l1840 130A  
                   l1664 1C6A                     l1656 1C4C                     l1680 1CB6  
                   l1672 1C8E                     l1816 155A                     l1738 1658  
                   l1762 1B04                     l1754 1AD8                     l1586 19D6  
                   l1578 1992                     l1850 1332                     l1834 12FE  
                   l1922 18EA                     l1674 1C98                     l1818 1566  
                   l1756 1ADE                     l1748 1AB2                     l1860 136E  
                   l1828 12D4                     l1932 191E                     l1676 1CA0  
                   l1780 146E                     l1772 1450                     l1766 1B24  
                   l1598 19FC                     l1870 13A6                     l1862 1376  
                   l1942 16A4                     l1782 1494                     l1768 1B2A  
                   l1856 1356                     l1944 16BE                     l1792 14BE  
                   l1776 1460                     l1858 1362                     l1970 1728  
                   l1962 1700                     l1794 14C2                     l1876 13EC  
                   l1868 139A                     l1980 1756                     l1972 172E  
                   l1948 16CC                     l1886 141E                     l1966 1712  
                   l1798 14CE                     l1992 1B48                     l1896 1882  
                   l1976 1740                     l1898 189C                     l1996 1B56  
                   STR_1 100B                     STR_2 1044                     STR_3 102A  
                   STR_4 1056                     u2001 16B4                     u2121 178E  
                   u2140 17BA                     u1430 1CF8                     u1510 161C  
                   u2145 17B2                     u1530 1642                     u1450 15AA  
                   u1550 1668                     u1470 15D0                     u1721 1292  
                   u1490 15F6                     u1731 12A6                     u1931 1874  
                   u1951 1892                     u1981 1696                     _TRMT 007D61  
                   _main 1066             ___ftpack@arg 0001             ___ftpack@exp 0004  
         ??_get_full_ADC 0003                     fsr2h 000FDA                     fsr1l 000FE1  
                   indf2 000FDF                     fsr2l 000FD9                     prodh 000FF4  
                   prodl 000FF3                     start 0000             ___ftmul@cntr 001A  
           ___param_bank 000010             ___ftmul@sign 001B             ___fttol@exp1 000F  
           ___fttol@lval 000B             main@mVolt_in 0048              ?_WAIT_1_SEC 0001  
            ?_SET_D2_OFF 0001              ?_SET_D2_RED 0001              ?_SET_D3_OFF 0001  
                  ?_main 0001              ?_SET_D3_RED 0001          __end_of___awdiv 1AA2  
        __end_of___ftadd 1446          __end_of___awmod 1BB4          __end_of___ftdiv 1946  
        __end_of___ftneg 1DBC          __end_of___ftmul 177E          ___awdiv@divisor 0003  
        __end_of___fttol 1864          __end_of___lwdiv 1C80          __end_of___lwmod 1CCC  
        ___awdiv@counter 0005                    _RCSTA 000FAB                    _SPBRG 000FAF  
                  _PORTB 000F81                    _PORTC 000F82                    _PORTD 000F83  
                  _TRISA 000F92                    _TRISB 000F93                    _TRISC 000F94  
                  _TRISD 000F95                    _TRISE 000F96                    _TXREG 000FAD  
                  _TXSTA 000FAC              ?_SET_RGB_D1 0009              ?_SET_RGB_D2 0001  
            ?_SET_RGB_D3 0001            ___awtoft@sign 000C          __end_of_dpowers 100B  
          ___ftpack@sign 0005                    _putch 1E0A           __CFG_BOREN$OFF 000000  
                  tablat 000FF5                    status 000FD8          __initialization 1D48  
           __end_of_main 1282         __end_of_Init_ADC 1E26                   ??_main 0037  
          ___fttol@sign1 000A               _Set_ADCON0 1E26            __activetblptr 000002  
  __end_of_SET_D2_YELLOW 1E6C    __end_of_SET_D2_PURPLE 1E84             ?_SET_D2_BLUE 0001  
           ?_SET_D2_CYAN 0001             ?_SET_D3_BLUE 0001                   _ADCON0 000FC2  
                 _ADCON1 000FC1                   _ADCON2 000FC0                   _ADRESH 000FC4  
                 _ADRESL 000FC3         ___awdiv@dividend 0001         __end_of___awtoft 1D48  
                 ?_putch 0001         __end_of___ftpack 1A0C                   _OSCCON 000FD3  
     __size_of_Init_UART 0014       __size_of_Init_TRIS 0016                   _SPBRGH 000FB0  
    __size_of_WAIT_1_SEC 0024       main@mVolt_in_float 0040      __size_of_SET_D2_OFF 0008  
    __size_of_SET_D2_RED 0008      __size_of_SET_D3_OFF 0008      __size_of_SET_D3_RED 0008  
    __size_of_SET_RGB_D1 0040      __size_of_SET_RGB_D2 0102      __size_of_SET_RGB_D3 0090  
     __size_of_OpenUSART 0070                ??___awdiv 0005                ??___ftadd 0022  
              ??___awmod 0005                ??___ftdiv 002E                ??___ftneg 0004  
              ??___ftmul 0013                ??___fttol 0005                ??___lwdiv 0005  
              ??___lwmod 000C         ___awdiv@quotient 0007          ___awmod@divisor 0003  
        ___awmod@counter 0005                   _printf 1446    ___ftmul@f3_as_product 0017  
   __end_of_get_full_ADC 1D98             __pdataCOMRAM 004C             __mediumconst 0000  
                 tblptrh 000FF7                   tblptrl 000FF6                   tblptru 000FF8  
                 putch@c 0001               __accesstop 0080  __end_of__initialization 1D68  
             ___ftadd@f1 001C               ___ftadd@f2 001F            ___rparam_used 000001  
             ___ftdiv@f1 0028               ___ftdiv@f2 002B               ___ftdiv@f3 0032  
             ___ftneg@f1 0001               ___awtoft@c 0009               ___ftmul@f1 000D  
             ___ftmul@f2 0010               ___fttol@f1 0001           __pcstackCOMRAM 0001  
          __end_of_putch 1E18        __end_of_Init_UART 1E0A        __end_of_Init_TRIS 1DF6  
            ?_Set_ADCON0 0001        __end_of_OpenUSART 1C24                  ??_putch 0001  
              ?_Init_ADC 0001           main@mVolt_in_1 0046            ?_SET_D2_GREEN 0001  
          ?_SET_D3_GREEN 0001            ?_SET_D2_WHITE 0001            ?_SET_D3_WHITE 0001  
           ??_WAIT_1_SEC 0001                ?___awtoft 0009                ?___ftpack 0001  
                ?_printf 000D             ??_SET_D2_OFF 0001             ??_SET_D2_RED 0001  
           ??_SET_D3_OFF 0001             ??_SET_D3_RED 0001             ??_SET_RGB_D1 000B  
           ??_SET_RGB_D2 0003             ??_SET_RGB_D3 0003              WAIT_1_SEC@j 0001  
       SET_RGB_D1@temp_f 0009         SET_RGB_D2@temp_f 0001     __size_of_SET_D2_BLUE 0008  
   __size_of_SET_D2_CYAN 0008     __size_of_SET_D3_BLUE 0008               ??_Init_ADC 0001  
     __end_of_WAIT_1_SEC 1DE0      __size_of_Set_ADCON0 000C       __end_of_SET_D2_OFF 1E8C  
     __end_of_SET_D2_RED 1E7C       __end_of_SET_D3_OFF 1E54       __end_of_SET_D3_RED 1E4C  
                __Hparam 0000                  __Lparam 0000       __end_of_SET_RGB_D1 1D0C  
     __end_of_SET_RGB_D2 1686       __end_of_SET_RGB_D3 1B32           ??_SET_D2_GREEN 0001  
         ??_SET_D3_GREEN 0001                  ___awdiv 1A0C                  ___ftadd 1282  
                ___awmod 1B32                  ___ftdiv 1864           ??_SET_D2_WHITE 0001  
                ___ftneg 1D98                  ___ftmul 1686                  ___fttol 177E  
         ??_SET_D3_WHITE 0001                  ___lwdiv 1C24                  ___lwmod 1C80  
  __size_of_get_full_ADC 0026             __psmallconst 1000                  __pcinit 1D48  
             ??___awtoft 000C               ??___ftpack 0006                  __ramtop 1000  
            SET_RGB_D1@t 000B                  __ptext0 1066                  __ptext1 1446  
                __ptext2 1E0A                  __ptext3 1C80                  __ptext4 1C24  
                __ptext5 1D72                  __ptext6 177E                  __ptext7 1D98  
                __ptext8 1686                  __ptext9 1864          __size_of_printf 013E  
                _dpowers 1001         ___awmod@dividend 0001     end_of_initialization 1D68  
          __Lmediumconst 0000             _get_full_ADC 1D72                _RCSTAbits 000FAB  
                printf@c 0019                  printf@f 000D                  postdec1 000FE5  
                postdec2 000FDD                  postinc0 000FEE                  postinc2 000FDE  
              _PORTCbits 000F82                _PORTEbits 000F84                _TRISCbits 000F94  
            ___ftdiv@exp 0035                _TXSTAbits 000FAC       get_full_ADC@result 0005  
 __size_of_SET_D2_YELLOW 0008   __size_of_SET_D2_PURPLE 0008              ___ftmul@exp 0016  
          __pidataCOMRAM 1E32             ??_Set_ADCON0 0001           __end_of_printf 1584  
    start_initialization 1D48                _Init_UART 1DF6                _Init_TRIS 1DE0  
   __end_of_SET_D2_GREEN 1E94     __end_of_SET_D3_GREEN 1E5C     __end_of_SET_D2_WHITE 1E74  
   __end_of_SET_D3_WHITE 1E44                _OpenUSART 1BB4         __CFG_OSC$INTIO67 000000  
      __size_of_Init_ADC 000E       __end_of_Set_ADCON0 1E32                 ??_printf 0012  
      __size_of___awtoft 003C        __size_of___ftpack 00C6            _SET_D2_YELLOW 1E64  
          _SET_D2_PURPLE 1E7C               ?_Init_UART 0001               ?_Init_TRIS 0001  
             ?_OpenUSART 0001         ___lwdiv@dividend 0001                 ?___awdiv 0001  
               ?___ftadd 001C                 ?___awmod 0001                 ?___ftdiv 0028  
               ?___ftneg 0001                 ?___ftmul 000D                 ?___fttol 0001  
               ?___lwdiv 0001                 ?___lwmod 0008           ?_SET_D2_YELLOW 0001  
         ?_SET_D2_PURPLE 0001              __smallconst 1000            ??_SET_D2_BLUE 0001  
          ??_SET_D2_CYAN 0001            ??_SET_D3_BLUE 0001         ___lwdiv@quotient 0005  
         __size_of_putch 000E         main@temp_Celsius 0039                 _LED_7seg 004C  
               _PIE1bits 000F9D                 _PIR1bits 000F9E        SET_RGB_D3@voltage 0001  
             _ADCON0bits 000FC2   main@temp_Celsius_float 0043               printf@flag 0015  
             printf@prec 0016    __size_of_SET_D2_GREEN 0008    __size_of_SET_D3_GREEN 0008  
            ??_Init_UART 0004    __size_of_SET_D2_WHITE 0008              ??_Init_TRIS 0001  
  __size_of_SET_D3_WHITE 0008                copy_data0 1D5C                 _Init_ADC 1E18  
            ??_OpenUSART 0003      __end_of_SET_D2_BLUE 1EA4      __end_of_SET_D2_CYAN 1E9C  
    __end_of_SET_D3_BLUE 1E64          OpenUSART@config 0003                 __Hrparam 0000  
               __Lrparam 0000             _SET_D2_GREEN 1E8C             _SET_D3_GREEN 1E54  
       __size_of___awdiv 0096         __size_of___ftadd 01C4         __size_of___awmod 0082  
       __size_of___ftdiv 00E2         __size_of___ftneg 0024         __size_of___ftmul 00F8  
           _SET_D2_WHITE 1E6C         __size_of___fttol 00E6         __size_of___lwdiv 005C  
           _SET_D3_WHITE 1E3C         __size_of___lwmod 004C                 ___awtoft 1D0C  
        ??_SET_D2_YELLOW 0001                 ___ftpack 1946          ??_SET_D2_PURPLE 0001  
        ___lwdiv@divisor 0003          ___lwdiv@counter 0007                 __ptext10 1282  
               __ptext11 1D0C                 __ptext20 1E54                 __ptext12 1946  
               __ptext21 1E5C                 __ptext13 1B32                 __ptext30 1E9C  
               __ptext22 1584                 __ptext14 1DBC                 __ptext31 1CCC  
               __ptext23 1E64                 __ptext15 1E26                 __ptext32 1A0C  
               __ptext24 1E6C                 __ptext16 1AA2                 __ptext33 1DF6  
               __ptext25 1E74                 __ptext17 1E3C                 __ptext34 1BB4  
               __ptext26 1E7C                 __ptext18 1E44                 __ptext35 1DE0  
               __ptext27 1E84                 __ptext19 1E4C                 __ptext36 1E18  
               __ptext28 1E8C                 __ptext29 1E94    main@temp_Fahren_float 003B  
          __size_of_main 021C          main@temp_Fahren 004A                printf@val 0017  
         OpenUSART@spbrg 0001              _SET_D2_BLUE 1E9C              _SET_D2_CYAN 1E94  
            _SET_D3_BLUE 1E5C         ___lwmod@dividend 0008                 printf@ap 0013  
          main@LOWER_DIS 003F               _WAIT_1_SEC 1DBC               _SET_D2_OFF 1E84  
             _SET_D2_RED 1E74               _SET_D3_OFF 1E4C               _SET_D3_RED 1E44  
        ___lwmod@divisor 000A               _SET_RGB_D1 1CCC               _SET_RGB_D2 1584  
             _SET_RGB_D3 1AA2          ___lwmod@counter 000C            main@UPPER_DIS 003E  
          ?_get_full_ADC 0001         Set_ADCON0@AN_pin 0001  
